
usb_kb.elf:     file format elf32-littlenios2
usb_kb.elf
architecture: nios2:r1, flags 0x00000112:
EXEC_P, HAS_SYMS, D_PAGED
start address 0x08000230

Program Header:
    LOAD off    0x00001000 vaddr 0x08000000 paddr 0x08000000 align 2**12
         filesz 0x00000020 memsz 0x00000020 flags r-x
    LOAD off    0x00001020 vaddr 0x08000020 paddr 0x08000020 align 2**12
         filesz 0x00017fe0 memsz 0x00017fe0 flags r-x
    LOAD off    0x00019000 vaddr 0x08018000 paddr 0x08019b2c align 2**12
         filesz 0x00001b2c memsz 0x00001b2c flags rw-
    LOAD off    0x0001b658 vaddr 0x0801b658 paddr 0x0801b658 align 2**12
         filesz 0x00000000 memsz 0x000002e8 flags rw-

Sections:
Idx Name          Size      VMA       LMA       File off  Algn
  0 .entry        00000020  08000000  08000000  00001000  2**5
                  CONTENTS, ALLOC, LOAD, READONLY, CODE
  1 .exceptions   00000210  08000020  08000020  00001020  2**2
                  CONTENTS, ALLOC, LOAD, READONLY, CODE
  2 .text         00017620  08000230  08000230  00001230  2**2
                  CONTENTS, ALLOC, LOAD, READONLY, CODE
  3 .rodata       000007b0  08017850  08017850  00018850  2**2
                  CONTENTS, ALLOC, LOAD, READONLY, DATA
  4 .rwdata       00001b2c  08018000  08019b2c  00019000  2**2
                  CONTENTS, ALLOC, LOAD, DATA, SMALL_DATA
  5 .bss          000002e8  0801b658  0801b658  0001b658  2**2
                  ALLOC, SMALL_DATA
  6 .onchip_memory2_0 00000000  00000000  00000000  0001ab2c  2**0
                  CONTENTS
  7 .sdram        00000000  0801b940  0801b940  0001ab2c  2**0
                  CONTENTS
  8 .comment      00000023  00000000  00000000  0001ab2c  2**0
                  CONTENTS, READONLY
  9 .debug_aranges 00001120  00000000  00000000  0001ab50  2**3
                  CONTENTS, READONLY, DEBUGGING
 10 .debug_info   00027c09  00000000  00000000  0001bc70  2**0
                  CONTENTS, READONLY, DEBUGGING
 11 .debug_abbrev 0000a4cb  00000000  00000000  00043879  2**0
                  CONTENTS, READONLY, DEBUGGING
 12 .debug_line   0000da43  00000000  00000000  0004dd44  2**0
                  CONTENTS, READONLY, DEBUGGING
 13 .debug_frame  00002d08  00000000  00000000  0005b788  2**2
                  CONTENTS, READONLY, DEBUGGING
 14 .debug_str    00004b32  00000000  00000000  0005e490  2**0
                  CONTENTS, READONLY, DEBUGGING
 15 .debug_loc    00019d71  00000000  00000000  00062fc2  2**0
                  CONTENTS, READONLY, DEBUGGING
 16 .debug_alt_sim_info 00000040  00000000  00000000  0007cd34  2**2
                  CONTENTS, READONLY, DEBUGGING
 17 .debug_ranges 00001a08  00000000  00000000  0007cd78  2**3
                  CONTENTS, READONLY, DEBUGGING
 18 .thread_model 00000003  00000000  00000000  0008244e  2**0
                  CONTENTS, READONLY
 19 .cpu          0000000c  00000000  00000000  00082451  2**0
                  CONTENTS, READONLY
 20 .qsys         00000001  00000000  00000000  0008245d  2**0
                  CONTENTS, READONLY
 21 .simulation_enabled 00000001  00000000  00000000  0008245e  2**0
                  CONTENTS, READONLY
 22 .sysid_hash   00000004  00000000  00000000  0008245f  2**0
                  CONTENTS, READONLY
 23 .sysid_base   00000004  00000000  00000000  00082463  2**0
                  CONTENTS, READONLY
 24 .sysid_time   00000004  00000000  00000000  00082467  2**0
                  CONTENTS, READONLY
 25 .stderr_dev   0000000b  00000000  00000000  0008246b  2**0
                  CONTENTS, READONLY
 26 .stdin_dev    0000000b  00000000  00000000  00082476  2**0
                  CONTENTS, READONLY
 27 .stdout_dev   0000000b  00000000  00000000  00082481  2**0
                  CONTENTS, READONLY
 28 .sopc_system_name 00000009  00000000  00000000  0008248c  2**0
                  CONTENTS, READONLY
 29 .quartus_project_dir 00000035  00000000  00000000  00082495  2**0
                  CONTENTS, READONLY
 30 .jdi          00005019  00000000  00000000  000824ca  2**0
                  CONTENTS, READONLY
 31 .sopcinfo     00163fc2  00000000  00000000  000874e3  2**0
                  CONTENTS, READONLY
SYMBOL TABLE:
08000000 l    d  .entry	00000000 .entry
08000020 l    d  .exceptions	00000000 .exceptions
08000230 l    d  .text	00000000 .text
08017850 l    d  .rodata	00000000 .rodata
08018000 l    d  .rwdata	00000000 .rwdata
0801b658 l    d  .bss	00000000 .bss
00000000 l    d  .onchip_memory2_0	00000000 .onchip_memory2_0
0801b940 l    d  .sdram	00000000 .sdram
00000000 l    d  .comment	00000000 .comment
00000000 l    d  .debug_aranges	00000000 .debug_aranges
00000000 l    d  .debug_info	00000000 .debug_info
00000000 l    d  .debug_abbrev	00000000 .debug_abbrev
00000000 l    d  .debug_line	00000000 .debug_line
00000000 l    d  .debug_frame	00000000 .debug_frame
00000000 l    d  .debug_str	00000000 .debug_str
00000000 l    d  .debug_loc	00000000 .debug_loc
00000000 l    d  .debug_alt_sim_info	00000000 .debug_alt_sim_info
00000000 l    d  .debug_ranges	00000000 .debug_ranges
00000000 l    df *ABS*	00000000 ../usb_kb_bsp//obj/HAL/src/crt0.o
08000268 l       .text	00000000 alt_after_alt_main
00000000 l    df *ABS*	00000000 alt_irq_handler.c
00000000 l    df *ABS*	00000000 alt_instruction_exception_entry.c
00000000 l    df *ABS*	00000000 main.c
08019adc l     O .rwdata	00000001 addr
00000000 l    df *ABS*	00000000 HID.c
00000000 l    df *ABS*	00000000 MAX3421E.c
00000000 l    df *ABS*	00000000 transfer.c
0801b668 l     O .bss	00000004 usb_delay.2608
0801b66c l     O .bss	00000001 tmp_addr.2609
00000000 l    df *ABS*	00000000 s_atan.c
08017b08 l     O .rodata	00000020 atanhi
08017ae8 l     O .rodata	00000020 atanlo
00000000 l    df *ABS*	00000000 s_cos.c
00000000 l    df *ABS*	00000000 s_fabs.c
00000000 l    df *ABS*	00000000 s_sin.c
00000000 l    df *ABS*	00000000 e_rem_pio2.c
08017ba8 l     O .rodata	00000108 two_over_pi
08017b28 l     O .rodata	00000080 npio2_hw
00000000 l    df *ABS*	00000000 k_cos.c
00000000 l    df *ABS*	00000000 k_rem_pio2.c
08017cf0 l     O .rodata	00000010 init_jk
08017cb0 l     O .rodata	00000040 PIo2
00000000 l    df *ABS*	00000000 k_sin.c
00000000 l    df *ABS*	00000000 s_floor.c
00000000 l    df *ABS*	00000000 s_scalbn.c
00000000 l    df *ABS*	00000000 s_copysign.c
00000000 l    df *ABS*	00000000 lib2-divmod.c
00000000 l    df *ABS*	00000000 lib2-mul.c
00000000 l    df *ABS*	00000000 adddf3.c
00000000 l    df *ABS*	00000000 divdf3.c
00000000 l    df *ABS*	00000000 eqdf2.c
00000000 l    df *ABS*	00000000 gedf2.c
00000000 l    df *ABS*	00000000 muldf3.c
00000000 l    df *ABS*	00000000 subdf3.c
00000000 l    df *ABS*	00000000 fixdfsi.c
00000000 l    df *ABS*	00000000 floatsidf.c
00000000 l    df *ABS*	00000000 libgcc2.c
00000000 l    df *ABS*	00000000 libgcc2.c
00000000 l    df *ABS*	00000000 printf.c
00000000 l    df *ABS*	00000000 puts.c
00000000 l    df *ABS*	00000000 rand.c
00000000 l    df *ABS*	00000000 strlen.c
00000000 l    df *ABS*	00000000 vfprintf.c
08017e46 l     O .rodata	00000010 zeroes.4404
0800ca90 l     F .text	000000bc __sbprintf
08017e56 l     O .rodata	00000010 blanks.4403
00000000 l    df *ABS*	00000000 wsetup.c
00000000 l    df *ABS*	00000000 dtoa.c
0800cca0 l     F .text	00000228 quorem
00000000 l    df *ABS*	00000000 fflush.c
00000000 l    df *ABS*	00000000 findfp.c
0800e7f8 l     F .text	00000008 __fp_unlock
0800e80c l     F .text	0000019c __sinit.part.1
0800e9a8 l     F .text	00000008 __fp_lock
00000000 l    df *ABS*	00000000 mallocr.c
00000000 l    df *ABS*	00000000 fvwrite.c
00000000 l    df *ABS*	00000000 fwalk.c
00000000 l    df *ABS*	00000000 impure.c
08018030 l     O .rwdata	00000424 impure_data
00000000 l    df *ABS*	00000000 locale.c
08018474 l     O .rwdata	00000020 lc_ctype_charset
08018454 l     O .rwdata	00000020 lc_message_charset
08018494 l     O .rwdata	00000038 lconv
00000000 l    df *ABS*	00000000 makebuf.c
00000000 l    df *ABS*	00000000 mallocr.c
00000000 l    df *ABS*	00000000 memchr.c
00000000 l    df *ABS*	00000000 memcpy.c
00000000 l    df *ABS*	00000000 memmove.c
00000000 l    df *ABS*	00000000 memset.c
00000000 l    df *ABS*	00000000 mprec.c
08017e88 l     O .rodata	0000000c p05.2768
00000000 l    df *ABS*	00000000 mallocr.c
00000000 l    df *ABS*	00000000 s_fpclassify.c
00000000 l    df *ABS*	00000000 sbrkr.c
00000000 l    df *ABS*	00000000 stdio.c
00000000 l    df *ABS*	00000000 strcmp.c
00000000 l    df *ABS*	00000000 vfprintf.c
08011e7c l     F .text	000000fc __sprint_r.part.0
08017fac l     O .rodata	00000010 zeroes.4349
080134b8 l     F .text	000000bc __sbprintf
08017fbc l     O .rodata	00000010 blanks.4348
00000000 l    df *ABS*	00000000 writer.c
00000000 l    df *ABS*	00000000 closer.c
00000000 l    df *ABS*	00000000 mallocr.c
00000000 l    df *ABS*	00000000 fclose.c
00000000 l    df *ABS*	00000000 fputwc.c
00000000 l    df *ABS*	00000000 fstatr.c
00000000 l    df *ABS*	00000000 int_errno.c
00000000 l    df *ABS*	00000000 isattyr.c
00000000 l    df *ABS*	00000000 lseekr.c
00000000 l    df *ABS*	00000000 readr.c
00000000 l    df *ABS*	00000000 wbuf.c
00000000 l    df *ABS*	00000000 wcrtomb.c
00000000 l    df *ABS*	00000000 wctomb_r.c
00000000 l    df *ABS*	00000000 libgcc2.c
00000000 l    df *ABS*	00000000 libgcc2.c
00000000 l    df *ABS*	00000000 libgcc2.c
00000000 l    df *ABS*	00000000 ledf2.c
00000000 l    df *ABS*	00000000 floatunsidf.c
00000000 l    df *ABS*	00000000 alt_close.c
08014d28 l     F .text	0000003c alt_get_errno
00000000 l    df *ABS*	00000000 alt_dev.c
08014e3c l     F .text	0000002c alt_dev_null_write
00000000 l    df *ABS*	00000000 alt_errno.c
00000000 l    df *ABS*	00000000 alt_fstat.c
08014e68 l     F .text	0000003c alt_get_errno
00000000 l    df *ABS*	00000000 alt_isatty.c
08014f5c l     F .text	0000003c alt_get_errno
00000000 l    df *ABS*	00000000 alt_load.c
08015044 l     F .text	00000068 alt_load_section
00000000 l    df *ABS*	00000000 alt_lseek.c
08015130 l     F .text	0000003c alt_get_errno
00000000 l    df *ABS*	00000000 alt_main.c
00000000 l    df *ABS*	00000000 alt_malloc_lock.c
00000000 l    df *ABS*	00000000 alt_read.c
0801530c l     F .text	0000003c alt_get_errno
00000000 l    df *ABS*	00000000 alt_release_fd.c
00000000 l    df *ABS*	00000000 alt_sbrk.c
08019b1c l     O .rwdata	00000004 heap_end
00000000 l    df *ABS*	00000000 alt_tick.c
00000000 l    df *ABS*	00000000 alt_usleep.c
00000000 l    df *ABS*	00000000 alt_write.c
08015754 l     F .text	0000003c alt_get_errno
00000000 l    df *ABS*	00000000 alt_sys_init.c
08015890 l     F .text	00000034 alt_dev_reg
08018a7c l     O .rwdata	00001060 jtag_uart_0
00000000 l    df *ABS*	00000000 altera_avalon_jtag_uart_fd.c
00000000 l    df *ABS*	00000000 altera_avalon_jtag_uart_init.c
08015b84 l     F .text	0000020c altera_avalon_jtag_uart_irq
08015d90 l     F .text	000000a0 altera_avalon_jtag_uart_timeout
00000000 l    df *ABS*	00000000 altera_avalon_jtag_uart_ioctl.c
00000000 l    df *ABS*	00000000 altera_avalon_jtag_uart_read.c
00000000 l    df *ABS*	00000000 altera_avalon_jtag_uart_write.c
00000000 l    df *ABS*	00000000 altera_avalon_spi.c
00000000 l    df *ABS*	00000000 altera_avalon_timer_sc.c
080165c4 l     F .text	00000078 alt_avalon_timer_sc_irq
00000000 l    df *ABS*	00000000 alt_alarm_start.c
00000000 l    df *ABS*	00000000 alt_busy_sleep.c
00000000 l    df *ABS*	00000000 alt_dcache_flush_all.c
00000000 l    df *ABS*	00000000 alt_dev_llist_insert.c
0801695c l     F .text	0000003c alt_get_errno
00000000 l    df *ABS*	00000000 alt_do_ctors.c
00000000 l    df *ABS*	00000000 alt_do_dtors.c
00000000 l    df *ABS*	00000000 alt_icache_flush_all.c
00000000 l    df *ABS*	00000000 alt_iic.c
00000000 l    df *ABS*	00000000 alt_iic_isr_register.c
00000000 l    df *ABS*	00000000 alt_io_redirect.c
08016dbc l     F .text	000000e4 alt_open_fd
00000000 l    df *ABS*	00000000 alt_irq_vars.c
00000000 l    df *ABS*	00000000 alt_open.c
08016f1c l     F .text	0000003c alt_get_errno
08016f58 l     F .text	000000ec alt_file_locked
00000000 l    df *ABS*	00000000 altera_nios2_gen2_irq.c
00000000 l    df *ABS*	00000000 alt_find_dev.c
00000000 l    df *ABS*	00000000 alt_find_file.c
00000000 l    df *ABS*	00000000 alt_get_fd.c
00000000 l    df *ABS*	00000000 atexit.c
00000000 l    df *ABS*	00000000 exit.c
00000000 l    df *ABS*	00000000 memcmp.c
00000000 l    df *ABS*	00000000 __atexit.c
00000000 l    df *ABS*	00000000 __call_atexit.c
00000000 l    df *ABS*	00000000 alt_exit.c
0801b6a4 g     O .bss	00000004 alt_instruction_exception_handler
080114c0 g     F .text	00000074 _mprec_log10
080115ac g     F .text	0000008c __any_on
08013a6c g     F .text	00000054 _isatty_r
08017e94 g     O .rodata	00000028 __mprec_tinytens
08015248 g     F .text	0000007c alt_main
08019ae0 g     O .rwdata	00000008 ctrl_xfers
0800a5b0 g     F .text	000000c0 _puts_r
0801b840 g     O .bss	00000100 alt_irq
08005b44 g     F .text	00000014 fabs
08013ac0 g     F .text	00000060 _lseek_r
08004c84 g     F .text	00000644 USB_Task
08019b2c g       *ABS*	00000000 __flash_rwdata_start
080090b8 g     F .text	00000088 .hidden __eqdf2
08001ad8 g     F .text	000000a4 update_ui_anim
0801b940 g       *ABS*	00000000 __alt_heap_start
0800a574 g     F .text	0000003c printf
08013cd8 g     F .text	0000009c _wcrtomb_r
08003e54 g     F .text	00000088 kbdPoll
08011d3c g     F .text	0000005c __sseek
0800eb58 g     F .text	00000010 __sinit
08013b80 g     F .text	00000140 __swbuf_r
0800f62c g     F .text	0000007c _setlocale_r
0800e9b0 g     F .text	00000078 __sfmoreglue
080152e8 g     F .text	00000024 __malloc_unlock
0800026c g     F .text	000001f0 GetDriverandReport
080102fc g     F .text	0000015c memmove
0800eb40 g     F .text	00000018 _cleanup
08010580 g     F .text	000000a8 _Balloc
08003fa8 g     F .text	000000a8 MAXreg_wr
08018000 g     O .rwdata	00000030 ClientDriverTable
08009140 g     F .text	000000dc .hidden __gtdf2
080171a0 g     F .text	00000024 altera_nios2_gen2_irq_init
080052c8 g     F .text	0000002c MSDProbe
08000000 g     F .entry	0000000c __reset
080047a0 g     F .text	000000e8 XferCtrlData
08000020 g       *ABS*	00000000 __flash_exceptions_start
0801b6a8 g     O .bss	00000010 hid_ep
08013a10 g     F .text	0000005c _fstat_r
0801b688 g     O .bss	00000004 errno
080078bc g     F .text	000001ec floor
08011cb8 g     F .text	00000008 __seofread
0801b690 g     O .bss	00000004 alt_argv
08021adc g       *ABS*	00000000 _gp
08015724 g     F .text	00000030 usleep
08004104 g     F .text	0000007c MAXreg_rd
080188fc g     O .rwdata	00000180 alt_fd_list
08005c48 g     F .text	0000076c __ieee754_rem_pio2
08003d8c g     F .text	00000040 HID_init
080171c4 g     F .text	00000090 alt_find_dev
080101b4 g     F .text	00000148 memcpy
0800e800 g     F .text	0000000c _cleanup_r
0800a404 g     F .text	000000dc .hidden __floatsidf
08016ea0 g     F .text	0000007c alt_io_redirect
08014b8c g     F .text	000000f4 .hidden __ltdf2
08017850 g       *ABS*	00000000 __DTOR_END__
0800a670 g     F .text	00000014 puts
08017420 g     F .text	0000009c alt_exception_cause_generated_bad_addr
08011b9c g     F .text	00000074 __fpclassifyd
0801141c g     F .text	000000a4 __ratio
0801349c g     F .text	0000001c __vfiprintf_internal
08015f88 g     F .text	0000021c altera_avalon_jtag_uart_read
0800a544 g     F .text	00000030 _printf_r
0800076c g     F .text	00000094 isPressed
00000000 g       *ABS*	00000000 __alt_mem_onchip_memory2_0
08007d58 g     F .text	00000064 .hidden __udivsi3
08014f98 g     F .text	000000ac isatty
08001a6c g     F .text	0000006c missileStatehandler
08017ee4 g     O .rodata	000000c8 __mprec_tens
08000a8c g     F .text	00000b7c update_missile
0800f6a8 g     F .text	0000000c __locale_charset
080063b4 g     F .text	000004a4 __kernel_cos
08001c14 g     F .text	00000104 isHit
0801b684 g     O .bss	00000004 __malloc_top_pad
08019ae8 g     O .rwdata	00000001 usb_task_state
08019af4 g     O .rwdata	00000004 __mb_cur_max
0800f6d8 g     F .text	0000000c _localeconv_r
080109b4 g     F .text	0000003c __i2b
0800efdc g     F .text	000004c8 __sfvwrite_r
08000800 g     F .text	00000244 setmotion
08011c10 g     F .text	00000054 _sbrk_r
08013b20 g     F .text	00000060 _read_r
0800445c g     F .text	00000094 MAX3421E_init
08000738 g     F .text	00000034 setKeycode
08019b14 g     O .rwdata	00000004 alt_max_fd
08013704 g     F .text	000000f0 _fclose_r
0800e7c8 g     F .text	00000030 fflush
0801b680 g     O .bss	00000004 __malloc_max_sbrked_mem
080075f0 g     F .text	000002cc __kernel_sin
08007e3c g     F .text	000008ac .hidden __adddf3
080111c4 g     F .text	0000010c __b2d
080145c8 g     F .text	000005c4 .hidden __umoddi3
0801516c g     F .text	000000dc lseek
08019aec g     O .rwdata	00000004 _global_impure_ptr
08011638 g     F .text	00000564 _realloc_r
0801b940 g       *ABS*	00000000 __bss_end
08016ccc g     F .text	000000f0 alt_iic_isr_register
0801561c g     F .text	00000108 alt_tick
08013fcc g     F .text	000005fc .hidden __udivdi3
0801396c g     F .text	00000024 _fputwc_r
08017ebc g     O .rodata	00000028 __mprec_bigtens
08010798 g     F .text	00000104 __s2b
08014c80 g     F .text	000000a8 .hidden __floatunsidf
08010f04 g     F .text	00000060 __mcmp
08001d18 g     F .text	00000088 playExplosion
0800eb78 g     F .text	00000018 __fp_lock_all
08016c80 g     F .text	0000004c alt_ic_irq_enabled
08015580 g     F .text	0000009c alt_alarm_stop
08001b7c g     F .text	0000004c setLoc
0801b6a0 g     O .bss	00000004 alt_irq_active
08005390 g     F .text	0000002c DummyProbe
08000a44 g     F .text	00000048 isOnscreen
080000fc g     F .exceptions	000000d4 alt_irq_handler
080188d4 g     O .rwdata	00000028 alt_dev_null
08006858 g     F .text	00000d98 __kernel_rem_pio2
08001bc8 g     F .text	0000004c updateScore
08003dcc g     F .text	00000088 mousePoll
080042b0 g     F .text	00000024 Vbus_power
0801693c g     F .text	00000020 alt_dcache_flush_all
0801089c g     F .text	00000068 __hi0bits
0800a384 g     F .text	00000080 .hidden __fixdfsi
08019b2c g       *ABS*	00000000 __ram_rwdata_end
08019b0c g     O .rwdata	00000008 alt_dev_list
08015790 g     F .text	00000100 write
08018000 g       *ABS*	00000000 __ram_rodata_end
0801b66d g     O .bss	00000001 usb_error
08014ea4 g     F .text	000000b8 fstat
08014b8c g     F .text	000000f4 .hidden __ledf2
08010c7c g     F .text	00000140 __pow5mult
08011f90 g     F .text	0000150c ___vfiprintf_internal_r
0801b678 g     O .bss	00000004 __nlocale_changed
08007dbc g     F .text	00000058 .hidden __umodsi3
08001da0 g     F .text	00000184 reset_player
0801b940 g       *ABS*	00000000 end
08015ac4 g     F .text	000000c0 altera_avalon_jtag_uart_init
080001d0 g     F .exceptions	00000060 alt_instruction_exception_entry
080048fc g     F .text	00000160 XferDispatchPkt
08017850 g       *ABS*	00000000 __CTOR_LIST__
0c000000 g       *ABS*	00000000 __alt_stack_pointer
0801663c g     F .text	0000007c alt_avalon_timer_sc_init
0800a4e0 g     F .text	00000064 .hidden __clzsi2
080161a4 g     F .text	00000224 altera_avalon_jtag_uart_write
08005a58 g     F .text	000000ec cos
0800eb68 g     F .text	00000004 __sfp_lock_acquire
080100d0 g     F .text	000000e4 memchr
0800a798 g     F .text	000022dc ___vfprintf_internal_r
08004620 g     F .text	00000034 MaxGpxHandler
0800eccc g     F .text	00000310 _free_r
0800f6b4 g     F .text	00000010 __locale_mb_cur_max
0801769c g     F .text	00000180 __call_exitprocs
0801b674 g     O .bss	00000004 __mlocale_changed
08019af8 g     O .rwdata	00000004 __malloc_sbrk_base
08000230 g     F .text	0000003c _start
0801b698 g     O .bss	00000004 _alt_tick_rate
08004180 g     F .text	00000090 MAXbytes_rd
08005b58 g     F .text	000000f0 sin
0800a69c g     F .text	00000064 rand
08010dbc g     F .text	00000148 __lshift
080163c8 g     F .text	000001fc alt_avalon_spi_command
0801b69c g     O .bss	00000004 _alt_nticks
08015348 g     F .text	00000104 read
080158fc g     F .text	00000064 alt_sys_init
0801b7f8 g     O .bss	00000048 devtable
08017584 g     F .text	00000118 __register_exitproc
08003984 g     F .text	00000408 HIDKProbe
0801b6b8 g     O .bss	00000018 msd_ep
080109f0 g     F .text	0000028c __multiply
08015e30 g     F .text	00000068 altera_avalon_jtag_uart_close
08004bec g     F .text	00000098 USB_init
08007e14 g     F .text	00000028 .hidden __mulsi3
0801b6f8 g     O .bss	00000100 bigbuf
08018000 g       *ABS*	00000000 __ram_rwdata_start
08017850 g       *ABS*	00000000 __ram_rodata_start
0801b6d0 g     O .bss	00000028 __malloc_current_mallinfo
0801b664 g     O .bss	00000001 last_usb_task_state
080112d0 g     F .text	0000014c __d2b
0801b65c g     O .bss	00000008 dev0ep
080004a0 g     F .text	00000048 clearLED
08015960 g     F .text	00000060 altera_avalon_jtag_uart_read_fd
0801735c g     F .text	000000c4 alt_get_fd
080167e4 g     F .text	00000158 alt_busy_sleep
080052f4 g     F .text	00000038 MSDEventHandler
080135d4 g     F .text	00000054 _close_r
08017508 g     F .text	0000007c memcmp
08015a20 g     F .text	00000050 altera_avalon_jtag_uart_close_fd
0801b940 g       *ABS*	00000000 __alt_stack_base
08015a70 g     F .text	00000054 altera_avalon_jtag_uart_ioctl_fd
0800cb4c g     F .text	00000154 __swsetup_r
080086e8 g     F .text	000009d0 .hidden __divdf3
0800ea28 g     F .text	00000118 __sfp
08011534 g     F .text	00000078 __copybits
080184cc g     O .rwdata	00000408 __malloc_av_
0800eb74 g     F .text	00000004 __sinit_lock_release
08005358 g     F .text	00000038 CDCEventHandler
0800921c g     F .text	0000086c .hidden __muldf3
080053bc g     F .text	00000038 DummyEventHandler
08011c64 g     F .text	00000054 __sread
08017254 g     F .text	00000108 alt_find_file
08016998 g     F .text	000000a4 alt_dev_llist_insert
080152c4 g     F .text	00000024 __malloc_lock
080154d0 g     F .text	000000b0 sbrk
0800e76c g     F .text	0000005c _fflush_r
08013628 g     F .text	000000dc _calloc_r
0801b658 g       *ABS*	00000000 __bss_start
080042d4 g     F .text	00000188 MAX_busprobe
0801b658 g     O .bss	00000002 hid_device
08010458 g     F .text	00000128 memset
08001f24 g     F .text	00001658 main
080044f0 g     F .text	00000064 MAX3421E_Task
0801b694 g     O .bss	00000004 alt_envp
0801b67c g     O .bss	00000004 __malloc_max_total_mem
080159c0 g     F .text	00000060 altera_avalon_jtag_uart_write_fd
08013cc0 g     F .text	00000018 __swbuf
0800a684 g     F .text	00000018 srand
0800544c g     F .text	00000084 ConvUTF8ToStr
08011d98 g     F .text	00000008 __sclose
0c000000 g       *ABS*	00000000 __alt_heap_limit
080137f4 g     F .text	00000014 fclose
0800cec8 g     F .text	00001688 _dtoa_r
0800f8c4 g     F .text	0000080c _malloc_r
08013e34 g     F .text	00000030 __ascii_wctomb
08019b18 g     O .rwdata	00000004 alt_errno
0800f4a4 g     F .text	000000c4 _fwalk
08007c60 g     F .text	00000084 .hidden __divsi3
08004a5c g     F .text	00000190 XferInTransfer
08000600 g     F .text	00000138 printSignedHex1
0800eba8 g     F .text	00000124 _malloc_trim_r
08017850 g       *ABS*	00000000 __CTOR_END__
08005414 g     F .text	00000038 GetDevtable
08011da0 g     F .text	000000dc strcmp
08017850 g       *ABS*	00000000 __flash_rodata_start
08017850 g       *ABS*	00000000 __DTOR_LIST__
08004888 g     F .text	00000074 XferCtrlND
08007c44 g     F .text	0000001c copysign
080090b8 g     F .text	00000088 .hidden __nedf2
08004210 g     F .text	000000a0 MAX3421E_reset
080158c4 g     F .text	00000038 alt_irq_init
0801544c g     F .text	00000084 alt_release_fd
080054d0 g     F .text	00000588 atan
08017d00 g     O .rodata	00000100 .hidden __clz_tab
0801b670 g     O .bss	00000004 _PathLocale
080174bc g     F .text	00000014 atexit
08013574 g     F .text	00000060 _write_r
0800f6e4 g     F .text	00000018 setlocale
08019af0 g     O .rwdata	00000004 _impure_ptr
0801b68c g     O .bss	00000004 alt_argc
0800e550 g     F .text	0000021c __sflush_r
08007aa8 g     F .text	0000019c scalbn
08016a9c g     F .text	00000060 _do_dtors
0800f6d0 g     F .text	00000008 __locale_cjk_lang
08004050 g     F .text	000000b4 MAXbytes_wr
08000020 g       .exceptions	00000000 alt_irq_entry
08011160 g     F .text	00000064 __ulp
0800eb90 g     F .text	00000018 __fp_unlock_all
08019b04 g     O .rwdata	00000008 alt_fs_list
0800532c g     F .text	0000002c CDCProbe
08000020 g       *ABS*	00000000 __ram_exceptions_start
0800f6fc g     F .text	0000000c localeconv
0800045c g     F .text	00000044 setLED
080053f4 g     F .text	00000020 GetUsbTaskState
08016b1c g     F .text	00000050 alt_ic_isr_register
0801788c g     O .rodata	00000010 devclasses
08001608 g     F .text	00000464 update_player
08019b2c g       *ABS*	00000000 _edata
08003f14 g     F .text	00000038 HIDKEventHandler
0801b940 g       *ABS*	00000000 _end
08004554 g     F .text	000000cc MaxIntHandler
08013808 g     F .text	00000164 __fputwc
08000230 g       *ABS*	00000000 __ram_exceptions_end
08015e98 g     F .text	000000f0 altera_avalon_jtag_uart_ioctl
08003f4c g     F .text	00000034 SPI_init
08016bf4 g     F .text	0000008c alt_ic_irq_disable
08011cc0 g     F .text	0000007c __swrite
08019afc g     O .rwdata	00000004 __malloc_trim_threshold
0800f6c4 g     F .text	0000000c __locale_msgcharset
080174d0 g     F .text	00000038 exit
0800f568 g     F .text	000000c4 _fwalk_reent
08010f64 g     F .text	000001fc __mdiff
08007ce4 g     F .text	00000074 .hidden __modsi3
0c000000 g       *ABS*	00000000 __alt_data_end
08000020 g     F .exceptions	00000000 alt_exception
0800eb6c g     F .text	00000004 __sfp_lock_release
08000000 g       *ABS*	00000000 __alt_mem_sdram
08003edc g     F .text	00000038 HIDMEventHandler
0801781c g     F .text	00000034 _exit
080166b8 g     F .text	0000012c alt_alarm_start
080004e8 g     F .text	00000118 printSignedHex0
08013ec0 g     F .text	0000010c .hidden __muldi3
0800f708 g     F .text	000001bc __smakebuf_r
0800a700 g     F .text	00000098 strlen
08017044 g     F .text	0000015c open
08009140 g     F .text	000000dc .hidden __gedf2
08019b00 g     O .rwdata	00000004 __wctomb
08011f78 g     F .text	00000018 __sprint_r
08016afc g     F .text	00000020 alt_icache_flush_all
08019b28 g     O .rwdata	00000004 alt_priority_mask
08016b6c g     F .text	00000088 alt_ic_irq_enable
0800ca74 g     F .text	0000001c __vfprintf_internal
0800357c g     F .text	00000408 HIDMProbe
08013e64 g     F .text	0000005c _wctomb_r
08003f80 g     F .text	00000028 SPI_wr
08009a88 g     F .text	000008fc .hidden __subdf3
08010904 g     F .text	000000b0 __lo0bits
08019b20 g     O .rwdata	00000008 alt_alarm_list
08016a3c g     F .text	00000060 _do_ctors
08013d74 g     F .text	000000c0 wcrtomb
08014d64 g     F .text	000000d8 close
080150ac g     F .text	00000084 alt_load
08013990 g     F .text	00000080 fputwc
0800eb70 g     F .text	00000004 __sinit_lock_acquire
08004654 g     F .text	0000014c XferCtrlReq
08010650 g     F .text	00000148 __multadd
08010628 g     F .text	00000028 _Bfree



Disassembly of section .entry:

08000000 <__reset>:
 * Jump to the _start entry point in the .text section if reset code
 * is allowed or if optimizing for RTL simulation.
 */
#if defined(ALT_ALLOW_CODE_AT_RESET) || defined(ALT_SIM_OPTIMIZE)
    /* Jump to the _start entry point in the .text section. */
    movhi r1, %hi(_start)
 8000000:	00420034 	movhi	at,2048
    ori r1, r1, %lo(_start)
 8000004:	08408c14 	ori	at,at,560
    jmp r1
 8000008:	0800683a 	jmp	at
	...

Disassembly of section .exceptions:

08000020 <alt_exception>:

#else /* ALT_EXCEPTION_STACK disabled */
        /* 
         * Reserve space on normal stack for registers about to be pushed.
         */
        addi  sp, sp, -76
 8000020:	deffed04 	addi	sp,sp,-76
         * documentation for details).
         *
         * Leave a gap in the stack frame at 4(sp) for the muldiv handler to
         * store zero into.
         */
        stw   ra,  0(sp)
 8000024:	dfc00015 	stw	ra,0(sp)
        stw   r1,   8(sp)
 8000028:	d8400215 	stw	at,8(sp)
        stw   r2,  12(sp)
 800002c:	d8800315 	stw	r2,12(sp)
        stw   r3,  16(sp)
 8000030:	d8c00415 	stw	r3,16(sp)
        stw   r4,  20(sp)
 8000034:	d9000515 	stw	r4,20(sp)
        stw   r5,  24(sp)
 8000038:	d9400615 	stw	r5,24(sp)
        stw   r6,  28(sp)
 800003c:	d9800715 	stw	r6,28(sp)
        stw   r7,  32(sp)
 8000040:	d9c00815 	stw	r7,32(sp)
        rdctl r5, estatus   /* Read early to avoid usage stall */
 8000044:	000b307a 	rdctl	r5,estatus
        stw   r8,  36(sp)
 8000048:	da000915 	stw	r8,36(sp)
        stw   r9,  40(sp)
 800004c:	da400a15 	stw	r9,40(sp)
        stw   r10, 44(sp)
 8000050:	da800b15 	stw	r10,44(sp)
        stw   r11, 48(sp)
 8000054:	dac00c15 	stw	r11,48(sp)
        stw   r12, 52(sp)
 8000058:	db000d15 	stw	r12,52(sp)
        stw   r13, 56(sp)
 800005c:	db400e15 	stw	r13,56(sp)
        stw   r14, 60(sp)
 8000060:	db800f15 	stw	r14,60(sp)
        stw   r15, 64(sp)
 8000064:	dbc01015 	stw	r15,64(sp)
        /*
         * ea-4 contains the address of the instruction being executed
         * when the exception occured. For interrupt exceptions, we will
         * will be re-issue the isntruction. Store it in 72(sp)
         */
        stw   r5,  68(sp)  /* estatus */
 8000068:	d9401115 	stw	r5,68(sp)
        addi  r15, ea, -4  /* instruction that caused exception */
 800006c:	ebffff04 	addi	r15,ea,-4
        stw   r15,  72(sp)
 8000070:	dbc01215 	stw	r15,72(sp)
#else
        /*
         * Test to see if the exception was a software exception or caused 
         * by an external interrupt, and vector accordingly.
         */
        rdctl r4, ipending
 8000074:	0009313a 	rdctl	r4,ipending
        andi  r2, r5, 1
 8000078:	2880004c 	andi	r2,r5,1
        beq   r2, zero, .Lnot_irq
 800007c:	10000326 	beq	r2,zero,800008c <alt_exception+0x6c>
        beq   r4, zero, .Lnot_irq
 8000080:	20000226 	beq	r4,zero,800008c <alt_exception+0x6c>
        /*
         * Now that all necessary registers have been preserved, call 
         * alt_irq_handler() to process the interrupts.
         */

        call alt_irq_handler
 8000084:	80000fc0 	call	80000fc <alt_irq_handler>

        .section .exceptions.irqreturn, "xa"

        br    .Lexception_exit
 8000088:	00000706 	br	80000a8 <alt_exception+0x88>
         * upon completion, so we write ea (address of instruction *after*
         * the one where the exception occured) into 72(sp). The actual
         * instruction that caused the exception is written in r2, which these
         * handlers will utilize.
         */
        stw ea, 72(sp) /* EA is PC+4 so will skip over instruction causing exception */
 800008c:	df401215 	stw	ea,72(sp)
.Lunknown_16bit:
        addi.n r4, r4, 2 /* Need PC+2 to skip over instruction causing exception */
        stw r4, 72(sp)

#else /* CDX is not Enabled and all instructions are 32bits */
        ldw r2, -4(ea) /* Instruction value that caused exception */
 8000090:	e8bfff17 	ldw	r2,-4(ea)
         * debugger is present) or go into an infinite loop since the
         * handling behavior is undefined; in that case we will not return here.
         */

        /* Load exception-causing address as first argument (r4) */
        addi   r4, ea, -4
 8000094:	e93fff04 	addi	r4,ea,-4

        /* Call the instruction-exception entry */
        call   alt_instruction_exception_entry
 8000098:	80001d00 	call	80001d0 <alt_instruction_exception_entry>
         * instruction
         *
         * Return code was 0: Skip. The instruction after the exception is
         * already stored in 72(sp).
         */
        bne   r2, r0, .Lexception_exit
 800009c:	1000021e 	bne	r2,zero,80000a8 <alt_exception+0x88>

        /*
         * Otherwise, modify 72(sp) to re-issue the instruction that caused the
         * exception.
         */
        addi  r15, ea, -4  /* instruction that caused exception */
 80000a0:	ebffff04 	addi	r15,ea,-4
        stw   r15,  72(sp)
 80000a4:	dbc01215 	stw	r15,72(sp)
        /* 
         * Restore the saved registers, so that all general purpose registers 
         * have been restored to their state at the time the interrupt occured.
         */

        ldw   r5,  68(sp)
 80000a8:	d9401117 	ldw	r5,68(sp)
        ldw   ea,  72(sp)  /* This becomes the PC once eret is executed */
 80000ac:	df401217 	ldw	ea,72(sp)
        ldw   ra,   0(sp)
 80000b0:	dfc00017 	ldw	ra,0(sp)

        wrctl estatus, r5
 80000b4:	2801707a 	wrctl	estatus,r5

        ldw   r1,   8(sp)
 80000b8:	d8400217 	ldw	at,8(sp)
        ldw   r2,  12(sp)
 80000bc:	d8800317 	ldw	r2,12(sp)
        ldw   r3,  16(sp)
 80000c0:	d8c00417 	ldw	r3,16(sp)
        ldw   r4,  20(sp)
 80000c4:	d9000517 	ldw	r4,20(sp)
        ldw   r5,  24(sp)
 80000c8:	d9400617 	ldw	r5,24(sp)
        ldw   r6,  28(sp)
 80000cc:	d9800717 	ldw	r6,28(sp)
        ldw   r7,  32(sp)
 80000d0:	d9c00817 	ldw	r7,32(sp)

#if defined(ALT_EXCEPTION_STACK) && defined(ALT_STACK_CHECK)
        ldw   et, %gprel(alt_exception_old_stack_limit)(gp)
#endif

        ldw   r8,  36(sp)
 80000d4:	da000917 	ldw	r8,36(sp)
        ldw   r9,  40(sp)
 80000d8:	da400a17 	ldw	r9,40(sp)
        ldw   r10, 44(sp)
 80000dc:	da800b17 	ldw	r10,44(sp)
        ldw   r11, 48(sp)
 80000e0:	dac00c17 	ldw	r11,48(sp)
        ldw   r12, 52(sp)
 80000e4:	db000d17 	ldw	r12,52(sp)
        ldw   r13, 56(sp)
 80000e8:	db400e17 	ldw	r13,56(sp)
        ldw   r14, 60(sp)
 80000ec:	db800f17 	ldw	r14,60(sp)
        ldw   r15, 64(sp)
 80000f0:	dbc01017 	ldw	r15,64(sp)
        stw   et, %gprel(alt_stack_limit_value)(gp)
        stw   zero, %gprel(alt_exception_old_stack_limit)(gp)
#endif /* ALT_STACK_CHECK */
        ldw   sp,  76(sp)
#else /* ALT_EXCEPTION_STACK disabled */
        addi  sp, sp, 76
 80000f4:	dec01304 	addi	sp,sp,76

        /*
         * Return to the interrupted instruction.
         */

        eret
 80000f8:	ef80083a 	eret

080000fc <alt_irq_handler>:
 * instruction is present if the macro ALT_CI_INTERRUPT_VECTOR defined.
 */

void alt_irq_handler (void) __attribute__ ((section (".exceptions")));
void alt_irq_handler (void)
{
 80000fc:	defff904 	addi	sp,sp,-28
 8000100:	dfc00615 	stw	ra,24(sp)
 8000104:	df000515 	stw	fp,20(sp)
 8000108:	df000504 	addi	fp,sp,20
  
  /*
   * Notify the operating system that we are at interrupt level.
   */ 
  
  ALT_OS_INT_ENTER();
 800010c:	0001883a 	nop
#ifndef NIOS2_EIC_PRESENT
static ALT_INLINE alt_u32 ALT_ALWAYS_INLINE alt_irq_pending (void)
{
  alt_u32 active;

  NIOS2_READ_IPENDING (active);
 8000110:	0005313a 	rdctl	r2,ipending
 8000114:	e0bffe15 	stw	r2,-8(fp)

  return active;
 8000118:	e0bffe17 	ldw	r2,-8(fp)
   * Consider the case where the high priority interupt is asserted during
   * the interrupt entry sequence for a lower priority interrupt to see why
   * this is the case.
   */

  active = alt_irq_pending ();
 800011c:	e0bffb15 	stw	r2,-20(fp)

  do
  {
    i = 0;
 8000120:	e03ffd15 	stw	zero,-12(fp)
    mask = 1;
 8000124:	00800044 	movi	r2,1
 8000128:	e0bffc15 	stw	r2,-16(fp)
     * called to clear the interrupt condition.
     */

    do
    {
      if (active & mask)
 800012c:	e0fffb17 	ldw	r3,-20(fp)
 8000130:	e0bffc17 	ldw	r2,-16(fp)
 8000134:	1884703a 	and	r2,r3,r2
 8000138:	10001426 	beq	r2,zero,800018c <alt_irq_handler+0x90>
      { 
#ifdef ALT_ENHANCED_INTERRUPT_API_PRESENT
        alt_irq[i].handler(alt_irq[i].context); 
 800013c:	008200b4 	movhi	r2,2050
 8000140:	10ae1004 	addi	r2,r2,-18368
 8000144:	e0fffd17 	ldw	r3,-12(fp)
 8000148:	180690fa 	slli	r3,r3,3
 800014c:	10c5883a 	add	r2,r2,r3
 8000150:	10c00017 	ldw	r3,0(r2)
 8000154:	008200b4 	movhi	r2,2050
 8000158:	10ae1004 	addi	r2,r2,-18368
 800015c:	e13ffd17 	ldw	r4,-12(fp)
 8000160:	200890fa 	slli	r4,r4,3
 8000164:	1105883a 	add	r2,r2,r4
 8000168:	10800104 	addi	r2,r2,4
 800016c:	10800017 	ldw	r2,0(r2)
 8000170:	1009883a 	mov	r4,r2
 8000174:	183ee83a 	callr	r3
#else
        alt_irq[i].handler(alt_irq[i].context, i); 
#endif
        break;
 8000178:	0001883a 	nop
#ifndef NIOS2_EIC_PRESENT
static ALT_INLINE alt_u32 ALT_ALWAYS_INLINE alt_irq_pending (void)
{
  alt_u32 active;

  NIOS2_READ_IPENDING (active);
 800017c:	0005313a 	rdctl	r2,ipending
 8000180:	e0bfff15 	stw	r2,-4(fp)

  return active;
 8000184:	e0bfff17 	ldw	r2,-4(fp)
 8000188:	00000706 	br	80001a8 <alt_irq_handler+0xac>
      }
      mask <<= 1;
 800018c:	e0bffc17 	ldw	r2,-16(fp)
 8000190:	1085883a 	add	r2,r2,r2
 8000194:	e0bffc15 	stw	r2,-16(fp)
      i++;
 8000198:	e0bffd17 	ldw	r2,-12(fp)
 800019c:	10800044 	addi	r2,r2,1
 80001a0:	e0bffd15 	stw	r2,-12(fp)

    } while (1);
 80001a4:	003fe106 	br	800012c <__alt_data_end+0xfc00012c>

    active = alt_irq_pending ();
 80001a8:	e0bffb15 	stw	r2,-20(fp)
    
  } while (active);
 80001ac:	e0bffb17 	ldw	r2,-20(fp)
 80001b0:	103fdb1e 	bne	r2,zero,8000120 <__alt_data_end+0xfc000120>

  /*
   * Notify the operating system that interrupt processing is complete.
   */ 

  ALT_OS_INT_EXIT();
 80001b4:	0001883a 	nop
}
 80001b8:	0001883a 	nop
 80001bc:	e037883a 	mov	sp,fp
 80001c0:	dfc00117 	ldw	ra,4(sp)
 80001c4:	df000017 	ldw	fp,0(sp)
 80001c8:	dec00204 	addi	sp,sp,8
 80001cc:	f800283a 	ret

080001d0 <alt_instruction_exception_entry>:
 * that handler if it has been registered. Absent a handler, it will
 * break break or hang as discussed below.
 */
int 
alt_instruction_exception_entry (alt_u32 exception_pc)
{
 80001d0:	defffb04 	addi	sp,sp,-20
 80001d4:	dfc00415 	stw	ra,16(sp)
 80001d8:	df000315 	stw	fp,12(sp)
 80001dc:	df000304 	addi	fp,sp,12
 80001e0:	e13fff15 	stw	r4,-4(fp)
  cause = ( (cause & NIOS2_EXCEPTION_REG_CAUSE_MASK) >>
              NIOS2_EXCEPTION_REG_CAUSE_OFST );

  NIOS2_READ_BADADDR(badaddr);
#else
  cause = NIOS2_EXCEPTION_CAUSE_NOT_PRESENT;
 80001e4:	00bfffc4 	movi	r2,-1
 80001e8:	e0bffd15 	stw	r2,-12(fp)
  badaddr = 0;
 80001ec:	e03ffe15 	stw	zero,-8(fp)
#endif /* NIOS2_HAS_EXTRA_EXCEPTION_INFO */

  if(alt_instruction_exception_handler) {
 80001f0:	d0a6f217 	ldw	r2,-25656(gp)
 80001f4:	10000726 	beq	r2,zero,8000214 <alt_instruction_exception_entry+0x44>
     * Call handler. Its return value indicates whether the exception-causing
     * instruction should be re-issued. The code that called us,
     * alt_eceptions_entry.S, will look at this value and adjust the ea
     * register as necessary
     */
    return alt_instruction_exception_handler(cause, exception_pc, badaddr);
 80001f8:	d0a6f217 	ldw	r2,-25656(gp)
 80001fc:	e0fffd17 	ldw	r3,-12(fp)
 8000200:	e1bffe17 	ldw	r6,-8(fp)
 8000204:	e17fff17 	ldw	r5,-4(fp)
 8000208:	1809883a 	mov	r4,r3
 800020c:	103ee83a 	callr	r2
 8000210:	00000206 	br	800021c <alt_instruction_exception_entry+0x4c>
   *    (a peripheral which negates its interrupt output before its
   *    interrupt handler has been executed will cause spurious interrupts)
   */
  else {
#ifdef NIOS2_HAS_DEBUG_STUB
    NIOS2_BREAK();
 8000214:	003da03a 	break	0
      ;
#endif /* NIOS2_HAS_DEBUG_STUB */
  }

  /* We should not get here. Remove compiler warning. */
  return NIOS2_EXCEPTION_RETURN_REISSUE_INST;
 8000218:	0005883a 	mov	r2,zero
}
 800021c:	e037883a 	mov	sp,fp
 8000220:	dfc00117 	ldw	ra,4(sp)
 8000224:	df000017 	ldw	fp,0(sp)
 8000228:	dec00204 	addi	sp,sp,8
 800022c:	f800283a 	ret

Disassembly of section .text:

08000230 <_start>:

    /*
     * Now that the caches are initialized, set up the stack pointer and global pointer.
     * The values provided by the linker are assumed to be correctly aligned.
     */
    movhi sp, %hi(__alt_stack_pointer)
 8000230:	06c30034 	movhi	sp,3072
    ori sp, sp, %lo(__alt_stack_pointer)
 8000234:	dec00014 	ori	sp,sp,0
    movhi gp, %hi(_gp)
 8000238:	068200b4 	movhi	gp,2050
    ori gp, gp, %lo(_gp)
 800023c:	d686b714 	ori	gp,gp,6876
 */
#ifndef ALT_SIM_OPTIMIZE
    /* Log that the BSS is about to be cleared. */
    ALT_LOG_PUTS(alt_log_msg_bss)

    movhi r2, %hi(__bss_start)
 8000240:	00820074 	movhi	r2,2049
    ori r2, r2, %lo(__bss_start)
 8000244:	10ad9614 	ori	r2,r2,46680

    movhi r3, %hi(__bss_end)
 8000248:	00c20074 	movhi	r3,2049
    ori r3, r3, %lo(__bss_end)
 800024c:	18ee5014 	ori	r3,r3,47424

    beq r2, r3, 1f
 8000250:	10c00326 	beq	r2,r3,8000260 <_start+0x30>

0:
    stw zero, (r2)
 8000254:	10000015 	stw	zero,0(r2)
    addi r2, r2, 4
 8000258:	10800104 	addi	r2,r2,4
    bltu r2, r3, 0b
 800025c:	10fffd36 	bltu	r2,r3,8000254 <__alt_data_end+0xfc000254>
     * section aren't defined until alt_load() has been called).
     */
    mov   et, zero
#endif

    call alt_load
 8000260:	80150ac0 	call	80150ac <alt_load>

    /* Log that alt_main is about to be called. */
    ALT_LOG_PUTS(alt_log_msg_alt_main)

    /* Call the C entry point. It should never return. */
    call alt_main
 8000264:	80152480 	call	8015248 <alt_main>

08000268 <alt_after_alt_main>:

    /* Wait in infinite loop in case alt_main does return. */
alt_after_alt_main:
    br alt_after_alt_main
 8000268:	003fff06 	br	8000268 <__alt_data_end+0xfc000268>

0800026c <GetDriverandReport>:
extern HID_DEVICE hid_device;

static BYTE addr = 1; 				//hard-wired USB address
const char* const devclasses[] = { " Uninitialized", " HID Keyboard", " HID Mouse", " Mass storage" };

BYTE GetDriverandReport() {
 800026c:	defff604 	addi	sp,sp,-40
 8000270:	dfc00915 	stw	ra,36(sp)
 8000274:	df000815 	stw	fp,32(sp)
 8000278:	df000804 	addi	fp,sp,32
	BYTE i;
	BYTE rcode;
	BYTE device = 0xFF;
 800027c:	00bfffc4 	movi	r2,-1
 8000280:	e0bffd45 	stb	r2,-11(fp)
	BYTE tmpbyte;

	DEV_RECORD* tpl_ptr;
	printf("Reached USB_STATE_RUNNING (0x40)\n");
 8000284:	01020074 	movhi	r4,2049
 8000288:	211e2704 	addi	r4,r4,30876
 800028c:	800a6700 	call	800a670 <puts>
	for (i = 1; i < USB_NUMDEVICES; i++) {
 8000290:	00800044 	movi	r2,1
 8000294:	e0bffd05 	stb	r2,-12(fp)
 8000298:	00001f06 	br	8000318 <GetDriverandReport+0xac>
		tpl_ptr = GetDevtable(i);
 800029c:	e0bffd03 	ldbu	r2,-12(fp)
 80002a0:	1009883a 	mov	r4,r2
 80002a4:	80054140 	call	8005414 <GetDevtable>
 80002a8:	e0bffe15 	stw	r2,-8(fp)
		if (tpl_ptr->epinfo != NULL) {
 80002ac:	e0bffe17 	ldw	r2,-8(fp)
 80002b0:	10800017 	ldw	r2,0(r2)
 80002b4:	10001526 	beq	r2,zero,800030c <GetDriverandReport+0xa0>
			printf("Device: %d", i);
 80002b8:	e0bffd03 	ldbu	r2,-12(fp)
 80002bc:	100b883a 	mov	r5,r2
 80002c0:	01020074 	movhi	r4,2049
 80002c4:	211e3004 	addi	r4,r4,30912
 80002c8:	800a5740 	call	800a574 <printf>
			printf("%s \n", devclasses[tpl_ptr->devclass]);
 80002cc:	e0bffe17 	ldw	r2,-8(fp)
 80002d0:	10800103 	ldbu	r2,4(r2)
 80002d4:	10c03fcc 	andi	r3,r2,255
 80002d8:	00820074 	movhi	r2,2049
 80002dc:	109e2304 	addi	r2,r2,30860
 80002e0:	18c7883a 	add	r3,r3,r3
 80002e4:	18c7883a 	add	r3,r3,r3
 80002e8:	10c5883a 	add	r2,r2,r3
 80002ec:	10800017 	ldw	r2,0(r2)
 80002f0:	100b883a 	mov	r5,r2
 80002f4:	01020074 	movhi	r4,2049
 80002f8:	211e3304 	addi	r4,r4,30924
 80002fc:	800a5740 	call	800a574 <printf>
			device = tpl_ptr->devclass;
 8000300:	e0bffe17 	ldw	r2,-8(fp)
 8000304:	10800103 	ldbu	r2,4(r2)
 8000308:	e0bffd45 	stb	r2,-11(fp)
	BYTE device = 0xFF;
	BYTE tmpbyte;

	DEV_RECORD* tpl_ptr;
	printf("Reached USB_STATE_RUNNING (0x40)\n");
	for (i = 1; i < USB_NUMDEVICES; i++) {
 800030c:	e0bffd03 	ldbu	r2,-12(fp)
 8000310:	10800044 	addi	r2,r2,1
 8000314:	e0bffd05 	stb	r2,-12(fp)
 8000318:	e0bffd03 	ldbu	r2,-12(fp)
 800031c:	10800230 	cmpltui	r2,r2,8
 8000320:	103fde1e 	bne	r2,zero,800029c <__alt_data_end+0xfc00029c>
			printf("%s \n", devclasses[tpl_ptr->devclass]);
			device = tpl_ptr->devclass;
		}
	}
	//Query rate and protocol
	rcode = XferGetIdle(addr, 0, hid_device.interface, 0, &tmpbyte);
 8000324:	d0a00003 	ldbu	r2,-32768(gp)
 8000328:	11003fcc 	andi	r4,r2,255
 800032c:	d0a6df43 	ldbu	r2,-25731(gp)
 8000330:	10803fcc 	andi	r2,r2,255
 8000334:	e0ffff44 	addi	r3,fp,-3
 8000338:	d8c00415 	stw	r3,16(sp)
 800033c:	00c00044 	movi	r3,1
 8000340:	d8c00315 	stw	r3,12(sp)
 8000344:	d8800215 	stw	r2,8(sp)
 8000348:	d8000115 	stw	zero,4(sp)
 800034c:	d8000015 	stw	zero,0(sp)
 8000350:	01c00084 	movi	r7,2
 8000354:	01802844 	movi	r6,161
 8000358:	000b883a 	mov	r5,zero
 800035c:	80046540 	call	8004654 <XferCtrlReq>
 8000360:	e0bfff05 	stb	r2,-4(fp)
	if (rcode) {   //error handling
 8000364:	e0bfff03 	ldbu	r2,-4(fp)
 8000368:	10000926 	beq	r2,zero,8000390 <GetDriverandReport+0x124>
		printf("GetIdle Error. Error code: ");
 800036c:	01020074 	movhi	r4,2049
 8000370:	211e3504 	addi	r4,r4,30932
 8000374:	800a5740 	call	800a574 <printf>
		printf("%x \n", rcode);
 8000378:	e0bfff03 	ldbu	r2,-4(fp)
 800037c:	100b883a 	mov	r5,r2
 8000380:	01020074 	movhi	r4,2049
 8000384:	211e3c04 	addi	r4,r4,30960
 8000388:	800a5740 	call	800a574 <printf>
 800038c:	00000906 	br	80003b4 <GetDriverandReport+0x148>
	} else {
		printf("Update rate: ");
 8000390:	01020074 	movhi	r4,2049
 8000394:	211e3e04 	addi	r4,r4,30968
 8000398:	800a5740 	call	800a574 <printf>
		printf("%x \n", tmpbyte);
 800039c:	e0bfff43 	ldbu	r2,-3(fp)
 80003a0:	10803fcc 	andi	r2,r2,255
 80003a4:	100b883a 	mov	r5,r2
 80003a8:	01020074 	movhi	r4,2049
 80003ac:	211e3c04 	addi	r4,r4,30960
 80003b0:	800a5740 	call	800a574 <printf>
	}
	printf("Protocol: ");
 80003b4:	01020074 	movhi	r4,2049
 80003b8:	211e4204 	addi	r4,r4,30984
 80003bc:	800a5740 	call	800a574 <printf>
	rcode = XferGetProto(addr, 0, hid_device.interface, &tmpbyte);
 80003c0:	d0a00003 	ldbu	r2,-32768(gp)
 80003c4:	11003fcc 	andi	r4,r2,255
 80003c8:	d0a6df43 	ldbu	r2,-25731(gp)
 80003cc:	10803fcc 	andi	r2,r2,255
 80003d0:	e0ffff44 	addi	r3,fp,-3
 80003d4:	d8c00415 	stw	r3,16(sp)
 80003d8:	00c00044 	movi	r3,1
 80003dc:	d8c00315 	stw	r3,12(sp)
 80003e0:	d8800215 	stw	r2,8(sp)
 80003e4:	d8000115 	stw	zero,4(sp)
 80003e8:	d8000015 	stw	zero,0(sp)
 80003ec:	01c000c4 	movi	r7,3
 80003f0:	01802844 	movi	r6,161
 80003f4:	000b883a 	mov	r5,zero
 80003f8:	80046540 	call	8004654 <XferCtrlReq>
 80003fc:	e0bfff05 	stb	r2,-4(fp)
	if (rcode) {   //error handling
 8000400:	e0bfff03 	ldbu	r2,-4(fp)
 8000404:	10000926 	beq	r2,zero,800042c <GetDriverandReport+0x1c0>
		printf("GetProto Error. Error code ");
 8000408:	01020074 	movhi	r4,2049
 800040c:	211e4504 	addi	r4,r4,30996
 8000410:	800a5740 	call	800a574 <printf>
		printf("%x \n", rcode);
 8000414:	e0bfff03 	ldbu	r2,-4(fp)
 8000418:	100b883a 	mov	r5,r2
 800041c:	01020074 	movhi	r4,2049
 8000420:	211e3c04 	addi	r4,r4,30960
 8000424:	800a5740 	call	800a574 <printf>
 8000428:	00000606 	br	8000444 <GetDriverandReport+0x1d8>
	} else {
		printf("%d \n", tmpbyte);
 800042c:	e0bfff43 	ldbu	r2,-3(fp)
 8000430:	10803fcc 	andi	r2,r2,255
 8000434:	100b883a 	mov	r5,r2
 8000438:	01020074 	movhi	r4,2049
 800043c:	211e4c04 	addi	r4,r4,31024
 8000440:	800a5740 	call	800a574 <printf>
	}
	return device;
 8000444:	e0bffd43 	ldbu	r2,-11(fp)
}
 8000448:	e037883a 	mov	sp,fp
 800044c:	dfc00117 	ldw	ra,4(sp)
 8000450:	df000017 	ldw	fp,0(sp)
 8000454:	dec00204 	addi	sp,sp,8
 8000458:	f800283a 	ret

0800045c <setLED>:

void setLED(int LED) {
 800045c:	defffe04 	addi	sp,sp,-8
 8000460:	df000115 	stw	fp,4(sp)
 8000464:	df000104 	addi	fp,sp,4
 8000468:	e13fff15 	stw	r4,-4(fp)
	IOWR_ALTERA_AVALON_PIO_DATA(LEDS_PIO_BASE,
 800046c:	00816804 	movi	r2,1440
 8000470:	10c00037 	ldwio	r3,0(r2)
 8000474:	01000044 	movi	r4,1
 8000478:	e0bfff17 	ldw	r2,-4(fp)
 800047c:	2084983a 	sll	r2,r4,r2
 8000480:	1886b03a 	or	r3,r3,r2
 8000484:	00816804 	movi	r2,1440
 8000488:	10c00035 	stwio	r3,0(r2)
			(IORD_ALTERA_AVALON_PIO_DATA(LEDS_PIO_BASE) | (0x001 << LED)));
}
 800048c:	0001883a 	nop
 8000490:	e037883a 	mov	sp,fp
 8000494:	df000017 	ldw	fp,0(sp)
 8000498:	dec00104 	addi	sp,sp,4
 800049c:	f800283a 	ret

080004a0 <clearLED>:

void clearLED(int LED) {
 80004a0:	defffe04 	addi	sp,sp,-8
 80004a4:	df000115 	stw	fp,4(sp)
 80004a8:	df000104 	addi	fp,sp,4
 80004ac:	e13fff15 	stw	r4,-4(fp)
	IOWR_ALTERA_AVALON_PIO_DATA(LEDS_PIO_BASE,
 80004b0:	00816804 	movi	r2,1440
 80004b4:	10c00037 	ldwio	r3,0(r2)
 80004b8:	01000044 	movi	r4,1
 80004bc:	e0bfff17 	ldw	r2,-4(fp)
 80004c0:	2084983a 	sll	r2,r4,r2
 80004c4:	0084303a 	nor	r2,zero,r2
 80004c8:	1886703a 	and	r3,r3,r2
 80004cc:	00816804 	movi	r2,1440
 80004d0:	10c00035 	stwio	r3,0(r2)
			(IORD_ALTERA_AVALON_PIO_DATA(LEDS_PIO_BASE) & ~(0x001 << LED)));

}
 80004d4:	0001883a 	nop
 80004d8:	e037883a 	mov	sp,fp
 80004dc:	df000017 	ldw	fp,0(sp)
 80004e0:	dec00104 	addi	sp,sp,4
 80004e4:	f800283a 	ret

080004e8 <printSignedHex0>:

void printSignedHex0(signed char value) {
 80004e8:	defffc04 	addi	sp,sp,-16
 80004ec:	dfc00315 	stw	ra,12(sp)
 80004f0:	df000215 	stw	fp,8(sp)
 80004f4:	df000204 	addi	fp,sp,8
 80004f8:	2005883a 	mov	r2,r4
 80004fc:	e0bfff05 	stb	r2,-4(fp)
	BYTE tens = 0;
 8000500:	e03ffe05 	stb	zero,-8(fp)
	BYTE ones = 0;
 8000504:	e03ffe45 	stb	zero,-7(fp)
	WORD pio_val = IORD_ALTERA_AVALON_PIO_DATA(HEX_DIGITS_PIO_BASE);
 8000508:	00816c04 	movi	r2,1456
 800050c:	10800037 	ldwio	r2,0(r2)
 8000510:	e0bffe8d 	sth	r2,-6(fp)
	if (value < 0) {
 8000514:	e0bfff07 	ldb	r2,-4(fp)
 8000518:	1000060e 	bge	r2,zero,8000534 <printSignedHex0+0x4c>
		setLED(11);
 800051c:	010002c4 	movi	r4,11
 8000520:	800045c0 	call	800045c <setLED>
		value = -value;
 8000524:	e0bfff03 	ldbu	r2,-4(fp)
 8000528:	0085c83a 	sub	r2,zero,r2
 800052c:	e0bfff05 	stb	r2,-4(fp)
 8000530:	00000206 	br	800053c <printSignedHex0+0x54>
	} else {
		clearLED(11);
 8000534:	010002c4 	movi	r4,11
 8000538:	80004a00 	call	80004a0 <clearLED>
	}
	//handled hundreds
	if (value / 100)
 800053c:	e0bfff03 	ldbu	r2,-4(fp)
 8000540:	108018c4 	addi	r2,r2,99
 8000544:	10803fcc 	andi	r2,r2,255
 8000548:	108031f0 	cmpltui	r2,r2,199
 800054c:	1000031e 	bne	r2,zero,800055c <printSignedHex0+0x74>
		setLED(13);
 8000550:	01000344 	movi	r4,13
 8000554:	800045c0 	call	800045c <setLED>
 8000558:	00000206 	br	8000564 <printSignedHex0+0x7c>
	else
		clearLED(13);
 800055c:	01000344 	movi	r4,13
 8000560:	80004a00 	call	80004a0 <clearLED>

	value = value % 100;
 8000564:	e0bfff07 	ldb	r2,-4(fp)
 8000568:	01401904 	movi	r5,100
 800056c:	1009883a 	mov	r4,r2
 8000570:	8007ce40 	call	8007ce4 <__modsi3>
 8000574:	e0bfff05 	stb	r2,-4(fp)
	tens = value / 10;
 8000578:	e0bfff07 	ldb	r2,-4(fp)
 800057c:	01400284 	movi	r5,10
 8000580:	1009883a 	mov	r4,r2
 8000584:	8007c600 	call	8007c60 <__divsi3>
 8000588:	e0bffe05 	stb	r2,-8(fp)
	ones = value % 10;
 800058c:	e0bfff07 	ldb	r2,-4(fp)
 8000590:	01400284 	movi	r5,10
 8000594:	1009883a 	mov	r4,r2
 8000598:	8007ce40 	call	8007ce4 <__modsi3>
 800059c:	e0bffe45 	stb	r2,-7(fp)

	pio_val &= 0x00FF;
 80005a0:	e0bffe8b 	ldhu	r2,-6(fp)
 80005a4:	10803fcc 	andi	r2,r2,255
 80005a8:	e0bffe8d 	sth	r2,-6(fp)
	pio_val |= (tens << 12);
 80005ac:	e0bffe03 	ldbu	r2,-8(fp)
 80005b0:	1004933a 	slli	r2,r2,12
 80005b4:	1007883a 	mov	r3,r2
 80005b8:	e0bffe8b 	ldhu	r2,-6(fp)
 80005bc:	1884b03a 	or	r2,r3,r2
 80005c0:	e0bffe8d 	sth	r2,-6(fp)
	pio_val |= (ones << 8);
 80005c4:	e0bffe43 	ldbu	r2,-7(fp)
 80005c8:	1004923a 	slli	r2,r2,8
 80005cc:	1007883a 	mov	r3,r2
 80005d0:	e0bffe8b 	ldhu	r2,-6(fp)
 80005d4:	1884b03a 	or	r2,r3,r2
 80005d8:	e0bffe8d 	sth	r2,-6(fp)

	IOWR_ALTERA_AVALON_PIO_DATA(HEX_DIGITS_PIO_BASE, pio_val);
 80005dc:	e0fffe8b 	ldhu	r3,-6(fp)
 80005e0:	00816c04 	movi	r2,1456
 80005e4:	10c00035 	stwio	r3,0(r2)
}
 80005e8:	0001883a 	nop
 80005ec:	e037883a 	mov	sp,fp
 80005f0:	dfc00117 	ldw	ra,4(sp)
 80005f4:	df000017 	ldw	fp,0(sp)
 80005f8:	dec00204 	addi	sp,sp,8
 80005fc:	f800283a 	ret

08000600 <printSignedHex1>:

void printSignedHex1(signed char value) {
 8000600:	defffb04 	addi	sp,sp,-20
 8000604:	dfc00415 	stw	ra,16(sp)
 8000608:	df000315 	stw	fp,12(sp)
 800060c:	df000304 	addi	fp,sp,12
 8000610:	2005883a 	mov	r2,r4
 8000614:	e0bfff05 	stb	r2,-4(fp)
	BYTE tens = 0;
 8000618:	e03ffd05 	stb	zero,-12(fp)
	BYTE ones = 0;
 800061c:	e03ffd45 	stb	zero,-11(fp)
	DWORD pio_val = IORD_ALTERA_AVALON_PIO_DATA(HEX_DIGITS_PIO_BASE);
 8000620:	00816c04 	movi	r2,1456
 8000624:	10800037 	ldwio	r2,0(r2)
 8000628:	e0bffe15 	stw	r2,-8(fp)
	if (value < 0) {
 800062c:	e0bfff07 	ldb	r2,-4(fp)
 8000630:	1000060e 	bge	r2,zero,800064c <printSignedHex1+0x4c>
		setLED(10);
 8000634:	01000284 	movi	r4,10
 8000638:	800045c0 	call	800045c <setLED>
		value = -value;
 800063c:	e0bfff03 	ldbu	r2,-4(fp)
 8000640:	0085c83a 	sub	r2,zero,r2
 8000644:	e0bfff05 	stb	r2,-4(fp)
 8000648:	00000206 	br	8000654 <printSignedHex1+0x54>
	} else {
		clearLED(10);
 800064c:	01000284 	movi	r4,10
 8000650:	80004a00 	call	80004a0 <clearLED>
	}
	//handled hundreds
	if (value / 100)
 8000654:	e0bfff03 	ldbu	r2,-4(fp)
 8000658:	108018c4 	addi	r2,r2,99
 800065c:	10803fcc 	andi	r2,r2,255
 8000660:	108031f0 	cmpltui	r2,r2,199
 8000664:	1000031e 	bne	r2,zero,8000674 <printSignedHex1+0x74>
		setLED(12);
 8000668:	01000304 	movi	r4,12
 800066c:	800045c0 	call	800045c <setLED>
 8000670:	00000206 	br	800067c <printSignedHex1+0x7c>
	else
		clearLED(12);
 8000674:	01000304 	movi	r4,12
 8000678:	80004a00 	call	80004a0 <clearLED>

	value = value % 100;
 800067c:	e0bfff07 	ldb	r2,-4(fp)
 8000680:	01401904 	movi	r5,100
 8000684:	1009883a 	mov	r4,r2
 8000688:	8007ce40 	call	8007ce4 <__modsi3>
 800068c:	e0bfff05 	stb	r2,-4(fp)
	tens = value / 10;
 8000690:	e0bfff07 	ldb	r2,-4(fp)
 8000694:	01400284 	movi	r5,10
 8000698:	1009883a 	mov	r4,r2
 800069c:	8007c600 	call	8007c60 <__divsi3>
 80006a0:	e0bffd05 	stb	r2,-12(fp)
	ones = value % 10;
 80006a4:	e0bfff07 	ldb	r2,-4(fp)
 80006a8:	01400284 	movi	r5,10
 80006ac:	1009883a 	mov	r4,r2
 80006b0:	8007ce40 	call	8007ce4 <__modsi3>
 80006b4:	e0bffd45 	stb	r2,-11(fp)
	tens = value / 10;
 80006b8:	e0bfff07 	ldb	r2,-4(fp)
 80006bc:	01400284 	movi	r5,10
 80006c0:	1009883a 	mov	r4,r2
 80006c4:	8007c600 	call	8007c60 <__divsi3>
 80006c8:	e0bffd05 	stb	r2,-12(fp)
	ones = value % 10;
 80006cc:	e0bfff07 	ldb	r2,-4(fp)
 80006d0:	01400284 	movi	r5,10
 80006d4:	1009883a 	mov	r4,r2
 80006d8:	8007ce40 	call	8007ce4 <__modsi3>
 80006dc:	e0bffd45 	stb	r2,-11(fp)

	pio_val &= 0xFF00;
 80006e0:	e0bffe17 	ldw	r2,-8(fp)
 80006e4:	10bfc00c 	andi	r2,r2,65280
 80006e8:	e0bffe15 	stw	r2,-8(fp)
	pio_val |= (tens << 4);
 80006ec:	e0bffd03 	ldbu	r2,-12(fp)
 80006f0:	1004913a 	slli	r2,r2,4
 80006f4:	1007883a 	mov	r3,r2
 80006f8:	e0bffe17 	ldw	r2,-8(fp)
 80006fc:	10c4b03a 	or	r2,r2,r3
 8000700:	e0bffe15 	stw	r2,-8(fp)
	pio_val |= (ones << 0);
 8000704:	e0bffd43 	ldbu	r2,-11(fp)
 8000708:	e0fffe17 	ldw	r3,-8(fp)
 800070c:	1884b03a 	or	r2,r3,r2
 8000710:	e0bffe15 	stw	r2,-8(fp)

	IOWR_ALTERA_AVALON_PIO_DATA(HEX_DIGITS_PIO_BASE, pio_val);
 8000714:	e0fffe17 	ldw	r3,-8(fp)
 8000718:	00816c04 	movi	r2,1456
 800071c:	10c00035 	stwio	r3,0(r2)
}
 8000720:	0001883a 	nop
 8000724:	e037883a 	mov	sp,fp
 8000728:	dfc00117 	ldw	ra,4(sp)
 800072c:	df000017 	ldw	fp,0(sp)
 8000730:	dec00204 	addi	sp,sp,8
 8000734:	f800283a 	ret

08000738 <setKeycode>:

void setKeycode(WORD keycode)
{
 8000738:	defffe04 	addi	sp,sp,-8
 800073c:	df000115 	stw	fp,4(sp)
 8000740:	df000104 	addi	fp,sp,4
 8000744:	2005883a 	mov	r2,r4
 8000748:	e0bfff0d 	sth	r2,-4(fp)
	// what I changed for the keycode
	IOWR_ALTERA_AVALON_PIO_DATA(KEYCODE_BASE, keycode);
 800074c:	e0ffff0b 	ldhu	r3,-4(fp)
 8000750:	00817c04 	movi	r2,1520
 8000754:	10c00035 	stwio	r3,0(r2)
}
 8000758:	0001883a 	nop
 800075c:	e037883a 	mov	sp,fp
 8000760:	df000017 	ldw	fp,0(sp)
 8000764:	dec00104 	addi	sp,sp,4
 8000768:	f800283a 	ret

0800076c <isPressed>:

int isPressed(BOOT_KBD_REPORT kbdbuf, int keycode){
 800076c:	defffc04 	addi	sp,sp,-16
 8000770:	df000315 	stw	fp,12(sp)
 8000774:	df000304 	addi	fp,sp,12
 8000778:	e13ffd15 	stw	r4,-12(fp)
 800077c:	e17ffe15 	stw	r5,-8(fp)
 8000780:	e1bfff15 	stw	r6,-4(fp)
	if(kbdbuf.keycode[0] == keycode || kbdbuf.keycode[1] == keycode || kbdbuf.keycode[2] == keycode
 8000784:	e0bffd83 	ldbu	r2,-10(fp)
 8000788:	10c03fcc 	andi	r3,r2,255
 800078c:	e0bfff17 	ldw	r2,-4(fp)
 8000790:	18801426 	beq	r3,r2,80007e4 <isPressed+0x78>
 8000794:	e0bffdc3 	ldbu	r2,-9(fp)
 8000798:	10c03fcc 	andi	r3,r2,255
 800079c:	e0bfff17 	ldw	r2,-4(fp)
 80007a0:	18801026 	beq	r3,r2,80007e4 <isPressed+0x78>
 80007a4:	e0bffe03 	ldbu	r2,-8(fp)
 80007a8:	10c03fcc 	andi	r3,r2,255
 80007ac:	e0bfff17 	ldw	r2,-4(fp)
 80007b0:	18800c26 	beq	r3,r2,80007e4 <isPressed+0x78>
			|| kbdbuf.keycode[3] == keycode || kbdbuf.keycode[4] == keycode || kbdbuf.keycode[5] == keycode){
 80007b4:	e0bffe43 	ldbu	r2,-7(fp)
 80007b8:	10c03fcc 	andi	r3,r2,255
 80007bc:	e0bfff17 	ldw	r2,-4(fp)
 80007c0:	18800826 	beq	r3,r2,80007e4 <isPressed+0x78>
 80007c4:	e0bffe83 	ldbu	r2,-6(fp)
 80007c8:	10c03fcc 	andi	r3,r2,255
 80007cc:	e0bfff17 	ldw	r2,-4(fp)
 80007d0:	18800426 	beq	r3,r2,80007e4 <isPressed+0x78>
 80007d4:	e0bffec3 	ldbu	r2,-5(fp)
 80007d8:	10c03fcc 	andi	r3,r2,255
 80007dc:	e0bfff17 	ldw	r2,-4(fp)
 80007e0:	1880021e 	bne	r3,r2,80007ec <isPressed+0x80>
		return 1;
 80007e4:	00800044 	movi	r2,1
 80007e8:	00000106 	br	80007f0 <isPressed+0x84>
	}
	else
		return 0;
 80007ec:	0005883a 	mov	r2,zero
}
 80007f0:	e037883a 	mov	sp,fp
 80007f4:	df000017 	ldw	fp,0(sp)
 80007f8:	dec00104 	addi	sp,sp,4
 80007fc:	f800283a 	ret

08000800 <setmotion>:

void setmotion(struct player* p){
 8000800:	defffe04 	addi	sp,sp,-8
 8000804:	df000115 	stw	fp,4(sp)
 8000808:	df000104 	addi	fp,sp,4
 800080c:	e13fff15 	stw	r4,-4(fp)
	//	 Player motion decision
	switch(*(p->dir)){
 8000810:	e0bfff17 	ldw	r2,-4(fp)
 8000814:	10800617 	ldw	r2,24(r2)
 8000818:	10800003 	ldbu	r2,0(r2)
 800081c:	10803fcc 	andi	r2,r2,255
 8000820:	10c00428 	cmpgeui	r3,r2,16
 8000824:	1800821e 	bne	r3,zero,8000a30 <setmotion+0x230>
 8000828:	100690ba 	slli	r3,r2,2
 800082c:	00820034 	movhi	r2,2048
 8000830:	10821004 	addi	r2,r2,2112
 8000834:	1885883a 	add	r2,r3,r2
 8000838:	10800017 	ldw	r2,0(r2)
 800083c:	1000683a 	jmp	r2
 8000840:	08000880 	call	800088 <__alt_mem_onchip_memory2_0+0x800088>
 8000844:	08000898 	cmpnei	zero,at,34
 8000848:	080008b4 	orhi	zero,at,34
 800084c:	080008d0 	cmplti	zero,at,35
 8000850:	080008ec 	andhi	zero,at,35
 8000854:	08000904 	addi	zero,at,36
 8000858:	08000920 	cmpeqi	zero,at,36
 800085c:	0800093c 	xorhi	zero,at,36
 8000860:	08000958 	cmpnei	zero,at,37
 8000864:	08000970 	cmpltui	zero,at,37
 8000868:	0800098c 	andi	zero,at,38
 800086c:	080009a8 	cmpgeui	zero,at,38
 8000870:	080009c4 	addi	zero,at,39
 8000874:	080009dc 	xori	zero,at,39
 8000878:	080009f8 	rdprs	zero,at,39
 800087c:	08000a14 	ori	zero,at,40
	case 0:
		p->motion_x = 0;
 8000880:	e0bfff17 	ldw	r2,-4(fp)
 8000884:	10000415 	stw	zero,16(r2)
		p->motion_y = -3;
 8000888:	e0bfff17 	ldw	r2,-4(fp)
 800088c:	00ffff44 	movi	r3,-3
 8000890:	10c00515 	stw	r3,20(r2)
		break;
 8000894:	00006606 	br	8000a30 <setmotion+0x230>
	case 1:
		p->motion_x = -1;
 8000898:	e0bfff17 	ldw	r2,-4(fp)
 800089c:	00ffffc4 	movi	r3,-1
 80008a0:	10c00415 	stw	r3,16(r2)
		p->motion_y = -3;
 80008a4:	e0bfff17 	ldw	r2,-4(fp)
 80008a8:	00ffff44 	movi	r3,-3
 80008ac:	10c00515 	stw	r3,20(r2)
		break;
 80008b0:	00005f06 	br	8000a30 <setmotion+0x230>
	case 2:
		p->motion_x = -2;
 80008b4:	e0bfff17 	ldw	r2,-4(fp)
 80008b8:	00ffff84 	movi	r3,-2
 80008bc:	10c00415 	stw	r3,16(r2)
		p->motion_y = -2;
 80008c0:	e0bfff17 	ldw	r2,-4(fp)
 80008c4:	00ffff84 	movi	r3,-2
 80008c8:	10c00515 	stw	r3,20(r2)
		break;
 80008cc:	00005806 	br	8000a30 <setmotion+0x230>
	case 3:
		p->motion_x = -3;
 80008d0:	e0bfff17 	ldw	r2,-4(fp)
 80008d4:	00ffff44 	movi	r3,-3
 80008d8:	10c00415 	stw	r3,16(r2)
		p->motion_y = -1;
 80008dc:	e0bfff17 	ldw	r2,-4(fp)
 80008e0:	00ffffc4 	movi	r3,-1
 80008e4:	10c00515 	stw	r3,20(r2)
		break;
 80008e8:	00005106 	br	8000a30 <setmotion+0x230>
	case 4:
		p->motion_x = -3;
 80008ec:	e0bfff17 	ldw	r2,-4(fp)
 80008f0:	00ffff44 	movi	r3,-3
 80008f4:	10c00415 	stw	r3,16(r2)
		p->motion_y = 0;
 80008f8:	e0bfff17 	ldw	r2,-4(fp)
 80008fc:	10000515 	stw	zero,20(r2)
		break;
 8000900:	00004b06 	br	8000a30 <setmotion+0x230>
	case 5:
		p->motion_x = -3;
 8000904:	e0bfff17 	ldw	r2,-4(fp)
 8000908:	00ffff44 	movi	r3,-3
 800090c:	10c00415 	stw	r3,16(r2)
		p->motion_y = 1;
 8000910:	e0bfff17 	ldw	r2,-4(fp)
 8000914:	00c00044 	movi	r3,1
 8000918:	10c00515 	stw	r3,20(r2)
		break;
 800091c:	00004406 	br	8000a30 <setmotion+0x230>
	case 6:
		p->motion_x = -2;
 8000920:	e0bfff17 	ldw	r2,-4(fp)
 8000924:	00ffff84 	movi	r3,-2
 8000928:	10c00415 	stw	r3,16(r2)
		p->motion_y = 2;
 800092c:	e0bfff17 	ldw	r2,-4(fp)
 8000930:	00c00084 	movi	r3,2
 8000934:	10c00515 	stw	r3,20(r2)
		break;
 8000938:	00003d06 	br	8000a30 <setmotion+0x230>
	case 7:
		p->motion_x = -1;
 800093c:	e0bfff17 	ldw	r2,-4(fp)
 8000940:	00ffffc4 	movi	r3,-1
 8000944:	10c00415 	stw	r3,16(r2)
		p->motion_y = 3;
 8000948:	e0bfff17 	ldw	r2,-4(fp)
 800094c:	00c000c4 	movi	r3,3
 8000950:	10c00515 	stw	r3,20(r2)
		break;
 8000954:	00003606 	br	8000a30 <setmotion+0x230>
	case 8:
		p->motion_x = 0;
 8000958:	e0bfff17 	ldw	r2,-4(fp)
 800095c:	10000415 	stw	zero,16(r2)
		p->motion_y = 3;
 8000960:	e0bfff17 	ldw	r2,-4(fp)
 8000964:	00c000c4 	movi	r3,3
 8000968:	10c00515 	stw	r3,20(r2)
		break;
 800096c:	00003006 	br	8000a30 <setmotion+0x230>
	case 9:
		p->motion_x = 1;
 8000970:	e0bfff17 	ldw	r2,-4(fp)
 8000974:	00c00044 	movi	r3,1
 8000978:	10c00415 	stw	r3,16(r2)
		p->motion_y = 3;
 800097c:	e0bfff17 	ldw	r2,-4(fp)
 8000980:	00c000c4 	movi	r3,3
 8000984:	10c00515 	stw	r3,20(r2)
		break;
 8000988:	00002906 	br	8000a30 <setmotion+0x230>
	case 10:
		p->motion_x = 2;
 800098c:	e0bfff17 	ldw	r2,-4(fp)
 8000990:	00c00084 	movi	r3,2
 8000994:	10c00415 	stw	r3,16(r2)
		p->motion_y = 2;
 8000998:	e0bfff17 	ldw	r2,-4(fp)
 800099c:	00c00084 	movi	r3,2
 80009a0:	10c00515 	stw	r3,20(r2)
		break;
 80009a4:	00002206 	br	8000a30 <setmotion+0x230>
	case 11:
		p->motion_x = 3;
 80009a8:	e0bfff17 	ldw	r2,-4(fp)
 80009ac:	00c000c4 	movi	r3,3
 80009b0:	10c00415 	stw	r3,16(r2)
		p->motion_y = 1;
 80009b4:	e0bfff17 	ldw	r2,-4(fp)
 80009b8:	00c00044 	movi	r3,1
 80009bc:	10c00515 	stw	r3,20(r2)
		break;
 80009c0:	00001b06 	br	8000a30 <setmotion+0x230>
	case 12:
		p->motion_x = 3;
 80009c4:	e0bfff17 	ldw	r2,-4(fp)
 80009c8:	00c000c4 	movi	r3,3
 80009cc:	10c00415 	stw	r3,16(r2)
		p->motion_y = 0;
 80009d0:	e0bfff17 	ldw	r2,-4(fp)
 80009d4:	10000515 	stw	zero,20(r2)
		break;
 80009d8:	00001506 	br	8000a30 <setmotion+0x230>
	case 13:
		p->motion_x = 3;
 80009dc:	e0bfff17 	ldw	r2,-4(fp)
 80009e0:	00c000c4 	movi	r3,3
 80009e4:	10c00415 	stw	r3,16(r2)
		p->motion_y = -1;
 80009e8:	e0bfff17 	ldw	r2,-4(fp)
 80009ec:	00ffffc4 	movi	r3,-1
 80009f0:	10c00515 	stw	r3,20(r2)
		break;
 80009f4:	00000e06 	br	8000a30 <setmotion+0x230>
	case 14:
		p->motion_x = 2;
 80009f8:	e0bfff17 	ldw	r2,-4(fp)
 80009fc:	00c00084 	movi	r3,2
 8000a00:	10c00415 	stw	r3,16(r2)
		p->motion_y = -2;
 8000a04:	e0bfff17 	ldw	r2,-4(fp)
 8000a08:	00ffff84 	movi	r3,-2
 8000a0c:	10c00515 	stw	r3,20(r2)
		break;
 8000a10:	00000706 	br	8000a30 <setmotion+0x230>
	case 15:
		p->motion_x = 1;
 8000a14:	e0bfff17 	ldw	r2,-4(fp)
 8000a18:	00c00044 	movi	r3,1
 8000a1c:	10c00415 	stw	r3,16(r2)
		p->motion_y = -3;
 8000a20:	e0bfff17 	ldw	r2,-4(fp)
 8000a24:	00ffff44 	movi	r3,-3
 8000a28:	10c00515 	stw	r3,20(r2)
		break;
 8000a2c:	0001883a 	nop
	}
}
 8000a30:	0001883a 	nop
 8000a34:	e037883a 	mov	sp,fp
 8000a38:	df000017 	ldw	fp,0(sp)
 8000a3c:	dec00104 	addi	sp,sp,4
 8000a40:	f800283a 	ret

08000a44 <isOnscreen>:

int isOnscreen(int x, int y){
 8000a44:	defffd04 	addi	sp,sp,-12
 8000a48:	df000215 	stw	fp,8(sp)
 8000a4c:	df000204 	addi	fp,sp,8
 8000a50:	e13ffe15 	stw	r4,-8(fp)
 8000a54:	e17fff15 	stw	r5,-4(fp)
	if(x > 640 || y > 480){
 8000a58:	e0bffe17 	ldw	r2,-8(fp)
 8000a5c:	1080a048 	cmpgei	r2,r2,641
 8000a60:	1000031e 	bne	r2,zero,8000a70 <isOnscreen+0x2c>
 8000a64:	e0bfff17 	ldw	r2,-4(fp)
 8000a68:	10807850 	cmplti	r2,r2,481
 8000a6c:	1000021e 	bne	r2,zero,8000a78 <isOnscreen+0x34>
		return 0;
 8000a70:	0005883a 	mov	r2,zero
 8000a74:	00000106 	br	8000a7c <isOnscreen+0x38>
	}
	return 1;
 8000a78:	00800044 	movi	r2,1
}
 8000a7c:	e037883a 	mov	sp,fp
 8000a80:	df000017 	ldw	fp,0(sp)
 8000a84:	dec00104 	addi	sp,sp,4
 8000a88:	f800283a 	ret

08000a8c <update_missile>:

void update_missile(BOOT_KBD_REPORT kbdbuf, struct player* p, struct counters* pcounter, int shoot, struct Game* g){
 8000a8c:	defff104 	addi	sp,sp,-60
 8000a90:	dfc00e15 	stw	ra,56(sp)
 8000a94:	df000d15 	stw	fp,52(sp)
 8000a98:	dc000c15 	stw	r16,48(sp)
 8000a9c:	df000d04 	addi	fp,sp,52
 8000aa0:	e13ffb15 	stw	r4,-20(fp)
 8000aa4:	e17ffc15 	stw	r5,-16(fp)
 8000aa8:	e1bffd15 	stw	r6,-12(fp)
 8000aac:	e1fffe15 	stw	r7,-8(fp)
	if(isPressed(kbdbuf, shoot) && isOnscreen(*(p->missile_x), *(p->missile_y)) == 0){
 8000ab0:	e1800217 	ldw	r6,8(fp)
 8000ab4:	e13ffb17 	ldw	r4,-20(fp)
 8000ab8:	e17ffc17 	ldw	r5,-16(fp)
 8000abc:	800076c0 	call	800076c <isPressed>
 8000ac0:	10001d26 	beq	r2,zero,8000b38 <update_missile+0xac>
 8000ac4:	e0bffd17 	ldw	r2,-12(fp)
 8000ac8:	10800917 	ldw	r2,36(r2)
 8000acc:	10c00017 	ldw	r3,0(r2)
 8000ad0:	e0bffd17 	ldw	r2,-12(fp)
 8000ad4:	10800a17 	ldw	r2,40(r2)
 8000ad8:	10800017 	ldw	r2,0(r2)
 8000adc:	100b883a 	mov	r5,r2
 8000ae0:	1809883a 	mov	r4,r3
 8000ae4:	8000a440 	call	8000a44 <isOnscreen>
 8000ae8:	1000131e 	bne	r2,zero,8000b38 <update_missile+0xac>
		*(p->missile_x) = *(p->x_loc) + 16;
 8000aec:	e0bffd17 	ldw	r2,-12(fp)
 8000af0:	10800917 	ldw	r2,36(r2)
 8000af4:	e0fffd17 	ldw	r3,-12(fp)
 8000af8:	18c00017 	ldw	r3,0(r3)
 8000afc:	18c00017 	ldw	r3,0(r3)
 8000b00:	18c00404 	addi	r3,r3,16
 8000b04:	10c00015 	stw	r3,0(r2)
		*(p->missile_y) = *(p->y_loc) + 16;
 8000b08:	e0bffd17 	ldw	r2,-12(fp)
 8000b0c:	10800a17 	ldw	r2,40(r2)
 8000b10:	e0fffd17 	ldw	r3,-12(fp)
 8000b14:	18c00117 	ldw	r3,4(r3)
 8000b18:	18c00017 	ldw	r3,0(r3)
 8000b1c:	18c00404 	addi	r3,r3,16
 8000b20:	10c00015 	stw	r3,0(r2)
		p->missile_state = 0;
 8000b24:	e0bffd17 	ldw	r2,-12(fp)
 8000b28:	10000d15 	stw	zero,52(r2)
		p->missile_bounce = 0;
 8000b2c:	e0bffd17 	ldw	r2,-12(fp)
 8000b30:	10001a15 	stw	zero,104(r2)
 8000b34:	0002a106 	br	80015bc <update_missile+0xb30>
	}
	else if(pcounter->missile_motion_counter == 2 && p->missile_state == 0){
 8000b38:	e0bffe17 	ldw	r2,-8(fp)
 8000b3c:	10800417 	ldw	r2,16(r2)
 8000b40:	10800098 	cmpnei	r2,r2,2
 8000b44:	1000361e 	bne	r2,zero,8000c20 <update_missile+0x194>
 8000b48:	e0bffd17 	ldw	r2,-12(fp)
 8000b4c:	10800d17 	ldw	r2,52(r2)
 8000b50:	1000331e 	bne	r2,zero,8000c20 <update_missile+0x194>
		p->missile_x_prev = *(p->missile_x);
 8000b54:	e0bffd17 	ldw	r2,-12(fp)
 8000b58:	10800917 	ldw	r2,36(r2)
 8000b5c:	10c00017 	ldw	r3,0(r2)
 8000b60:	e0bffd17 	ldw	r2,-12(fp)
 8000b64:	10c00b15 	stw	r3,44(r2)
		p->missile_y_prev = *(p->missile_y);
 8000b68:	e0bffd17 	ldw	r2,-12(fp)
 8000b6c:	10800a17 	ldw	r2,40(r2)
 8000b70:	10c00017 	ldw	r3,0(r2)
 8000b74:	e0bffd17 	ldw	r2,-12(fp)
 8000b78:	10c00c15 	stw	r3,48(r2)
		p->missile_motion_x = 2 * p->motion_x;
 8000b7c:	e0bffd17 	ldw	r2,-12(fp)
 8000b80:	10800417 	ldw	r2,16(r2)
 8000b84:	1085883a 	add	r2,r2,r2
 8000b88:	1007883a 	mov	r3,r2
 8000b8c:	e0bffd17 	ldw	r2,-12(fp)
 8000b90:	10c00e15 	stw	r3,56(r2)
		p->missile_motion_y = 2 * p->motion_y;
 8000b94:	e0bffd17 	ldw	r2,-12(fp)
 8000b98:	10800517 	ldw	r2,20(r2)
 8000b9c:	1085883a 	add	r2,r2,r2
 8000ba0:	1007883a 	mov	r3,r2
 8000ba4:	e0bffd17 	ldw	r2,-12(fp)
 8000ba8:	10c00f15 	stw	r3,60(r2)
		*(p->missile_x) += p->missile_motion_x;
 8000bac:	e0bffd17 	ldw	r2,-12(fp)
 8000bb0:	10800917 	ldw	r2,36(r2)
 8000bb4:	e0fffd17 	ldw	r3,-12(fp)
 8000bb8:	18c00917 	ldw	r3,36(r3)
 8000bbc:	19000017 	ldw	r4,0(r3)
 8000bc0:	e0fffd17 	ldw	r3,-12(fp)
 8000bc4:	18c00e17 	ldw	r3,56(r3)
 8000bc8:	20c7883a 	add	r3,r4,r3
 8000bcc:	10c00015 	stw	r3,0(r2)
		*(p->missile_y) += p->missile_motion_y;
 8000bd0:	e0bffd17 	ldw	r2,-12(fp)
 8000bd4:	10800a17 	ldw	r2,40(r2)
 8000bd8:	e0fffd17 	ldw	r3,-12(fp)
 8000bdc:	18c00a17 	ldw	r3,40(r3)
 8000be0:	19000017 	ldw	r4,0(r3)
 8000be4:	e0fffd17 	ldw	r3,-12(fp)
 8000be8:	18c00f17 	ldw	r3,60(r3)
 8000bec:	20c7883a 	add	r3,r4,r3
 8000bf0:	10c00015 	stw	r3,0(r2)
		p->missile_motion_x_prev = p->missile_motion_x;
 8000bf4:	e0bffd17 	ldw	r2,-12(fp)
 8000bf8:	10c00e17 	ldw	r3,56(r2)
 8000bfc:	e0bffd17 	ldw	r2,-12(fp)
 8000c00:	10c01015 	stw	r3,64(r2)
		p->missile_motion_y_prev = p->missile_motion_y;
 8000c04:	e0bffd17 	ldw	r2,-12(fp)
 8000c08:	10c00f17 	ldw	r3,60(r2)
 8000c0c:	e0bffd17 	ldw	r2,-12(fp)
 8000c10:	10c01115 	stw	r3,68(r2)
		pcounter->missile_motion_counter = 0;
 8000c14:	e0bffe17 	ldw	r2,-8(fp)
 8000c18:	10000415 	stw	zero,16(r2)
 8000c1c:	00026706 	br	80015bc <update_missile+0xb30>
	}
	else if(pcounter->missile_motion_counter == 2 && p->missile_state == 1 && p->missile_bounce < BOUNCE_LIMIT){
 8000c20:	e0bffe17 	ldw	r2,-8(fp)
 8000c24:	10800417 	ldw	r2,16(r2)
 8000c28:	10800098 	cmpnei	r2,r2,2
 8000c2c:	1002471e 	bne	r2,zero,800154c <update_missile+0xac0>
 8000c30:	e0bffd17 	ldw	r2,-12(fp)
 8000c34:	10800d17 	ldw	r2,52(r2)
 8000c38:	10800058 	cmpnei	r2,r2,1
 8000c3c:	1002431e 	bne	r2,zero,800154c <update_missile+0xac0>
 8000c40:	e0bffd17 	ldw	r2,-12(fp)
 8000c44:	10801a17 	ldw	r2,104(r2)
 8000c48:	108000c8 	cmpgei	r2,r2,3
 8000c4c:	10023f1e 	bne	r2,zero,800154c <update_missile+0xac0>
		if(*(p->missile_collision) == 1){
 8000c50:	e0bffd17 	ldw	r2,-12(fp)
 8000c54:	10801417 	ldw	r2,80(r2)
 8000c58:	10800017 	ldw	r2,0(r2)
 8000c5c:	10800058 	cmpnei	r2,r2,1
 8000c60:	10021b1e 	bne	r2,zero,80014d0 <update_missile+0xa44>
			*(p->missile_x) = p->missile_x_prev;
 8000c64:	e0bffd17 	ldw	r2,-12(fp)
 8000c68:	10800917 	ldw	r2,36(r2)
 8000c6c:	e0fffd17 	ldw	r3,-12(fp)
 8000c70:	18c00b17 	ldw	r3,44(r3)
 8000c74:	10c00015 	stw	r3,0(r2)
			*(p->missile_y) = p->missile_y_prev;
 8000c78:	e0bffd17 	ldw	r2,-12(fp)
 8000c7c:	10800a17 	ldw	r2,40(r2)
 8000c80:	e0fffd17 	ldw	r3,-12(fp)
 8000c84:	18c00c17 	ldw	r3,48(r3)
 8000c88:	10c00015 	stw	r3,0(r2)
			// left opening
			if((*(p->missile_x) < 20 && *(p->missile_y) > 60 && *(p->missile_y) < 220)){
 8000c8c:	e0bffd17 	ldw	r2,-12(fp)
 8000c90:	10800917 	ldw	r2,36(r2)
 8000c94:	10800017 	ldw	r2,0(r2)
 8000c98:	10800508 	cmpgei	r2,r2,20
 8000c9c:	1000141e 	bne	r2,zero,8000cf0 <update_missile+0x264>
 8000ca0:	e0bffd17 	ldw	r2,-12(fp)
 8000ca4:	10800a17 	ldw	r2,40(r2)
 8000ca8:	10800017 	ldw	r2,0(r2)
 8000cac:	10800f50 	cmplti	r2,r2,61
 8000cb0:	10000f1e 	bne	r2,zero,8000cf0 <update_missile+0x264>
 8000cb4:	e0bffd17 	ldw	r2,-12(fp)
 8000cb8:	10800a17 	ldw	r2,40(r2)
 8000cbc:	10800017 	ldw	r2,0(r2)
 8000cc0:	10803708 	cmpgei	r2,r2,220
 8000cc4:	10000a1e 	bne	r2,zero,8000cf0 <update_missile+0x264>
				p->missile_motion_x = -(p->missile_motion_x_prev);
 8000cc8:	e0bffd17 	ldw	r2,-12(fp)
 8000ccc:	10801017 	ldw	r2,64(r2)
 8000cd0:	0087c83a 	sub	r3,zero,r2
 8000cd4:	e0bffd17 	ldw	r2,-12(fp)
 8000cd8:	10c00e15 	stw	r3,56(r2)
				p->missile_motion_y = (p->missile_motion_y_prev);
 8000cdc:	e0bffd17 	ldw	r2,-12(fp)
 8000ce0:	10c01117 	ldw	r3,68(r2)
 8000ce4:	e0bffd17 	ldw	r2,-12(fp)
 8000ce8:	10c00f15 	stw	r3,60(r2)
 8000cec:	0001d806 	br	8001450 <update_missile+0x9c4>
			}
			//top opening
			else if((*(p->missile_y) < 30 && *(p->missile_x) > 208 && *(p->missile_x) < 500)){
 8000cf0:	e0bffd17 	ldw	r2,-12(fp)
 8000cf4:	10800a17 	ldw	r2,40(r2)
 8000cf8:	10800017 	ldw	r2,0(r2)
 8000cfc:	10800788 	cmpgei	r2,r2,30
 8000d00:	1000141e 	bne	r2,zero,8000d54 <update_missile+0x2c8>
 8000d04:	e0bffd17 	ldw	r2,-12(fp)
 8000d08:	10800917 	ldw	r2,36(r2)
 8000d0c:	10800017 	ldw	r2,0(r2)
 8000d10:	10803450 	cmplti	r2,r2,209
 8000d14:	10000f1e 	bne	r2,zero,8000d54 <update_missile+0x2c8>
 8000d18:	e0bffd17 	ldw	r2,-12(fp)
 8000d1c:	10800917 	ldw	r2,36(r2)
 8000d20:	10800017 	ldw	r2,0(r2)
 8000d24:	10807d08 	cmpgei	r2,r2,500
 8000d28:	10000a1e 	bne	r2,zero,8000d54 <update_missile+0x2c8>
				p->missile_motion_x = (p->missile_motion_x_prev);
 8000d2c:	e0bffd17 	ldw	r2,-12(fp)
 8000d30:	10c01017 	ldw	r3,64(r2)
 8000d34:	e0bffd17 	ldw	r2,-12(fp)
 8000d38:	10c00e15 	stw	r3,56(r2)
				p->missile_motion_y = -(p->missile_motion_y_prev);
 8000d3c:	e0bffd17 	ldw	r2,-12(fp)
 8000d40:	10801117 	ldw	r2,68(r2)
 8000d44:	0087c83a 	sub	r3,zero,r2
 8000d48:	e0bffd17 	ldw	r2,-12(fp)
 8000d4c:	10c00f15 	stw	r3,60(r2)
 8000d50:	0001bf06 	br	8001450 <update_missile+0x9c4>
			}
			//right opening
			else if((*(p->missile_x) > 620 && *(p->missile_y) > 140 && *(p->missile_y) < 240)){
 8000d54:	e0bffd17 	ldw	r2,-12(fp)
 8000d58:	10800917 	ldw	r2,36(r2)
 8000d5c:	10800017 	ldw	r2,0(r2)
 8000d60:	10809b50 	cmplti	r2,r2,621
 8000d64:	1000141e 	bne	r2,zero,8000db8 <update_missile+0x32c>
 8000d68:	e0bffd17 	ldw	r2,-12(fp)
 8000d6c:	10800a17 	ldw	r2,40(r2)
 8000d70:	10800017 	ldw	r2,0(r2)
 8000d74:	10802350 	cmplti	r2,r2,141
 8000d78:	10000f1e 	bne	r2,zero,8000db8 <update_missile+0x32c>
 8000d7c:	e0bffd17 	ldw	r2,-12(fp)
 8000d80:	10800a17 	ldw	r2,40(r2)
 8000d84:	10800017 	ldw	r2,0(r2)
 8000d88:	10803c08 	cmpgei	r2,r2,240
 8000d8c:	10000a1e 	bne	r2,zero,8000db8 <update_missile+0x32c>
				p->missile_motion_x = -(p->missile_motion_x_prev);
 8000d90:	e0bffd17 	ldw	r2,-12(fp)
 8000d94:	10801017 	ldw	r2,64(r2)
 8000d98:	0087c83a 	sub	r3,zero,r2
 8000d9c:	e0bffd17 	ldw	r2,-12(fp)
 8000da0:	10c00e15 	stw	r3,56(r2)
				p->missile_motion_y = (p->missile_motion_y_prev);
 8000da4:	e0bffd17 	ldw	r2,-12(fp)
 8000da8:	10c01117 	ldw	r3,68(r2)
 8000dac:	e0bffd17 	ldw	r2,-12(fp)
 8000db0:	10c00f15 	stw	r3,60(r2)
 8000db4:	0001a606 	br	8001450 <update_missile+0x9c4>
			}
			//down opening
			else if((*(p->missile_y) > 370 && *(p->missile_x) > 128 && *(p->missile_x) < 400)){
 8000db8:	e0bffd17 	ldw	r2,-12(fp)
 8000dbc:	10800a17 	ldw	r2,40(r2)
 8000dc0:	10800017 	ldw	r2,0(r2)
 8000dc4:	10805cd0 	cmplti	r2,r2,371
 8000dc8:	1000141e 	bne	r2,zero,8000e1c <update_missile+0x390>
 8000dcc:	e0bffd17 	ldw	r2,-12(fp)
 8000dd0:	10800917 	ldw	r2,36(r2)
 8000dd4:	10800017 	ldw	r2,0(r2)
 8000dd8:	10802050 	cmplti	r2,r2,129
 8000ddc:	10000f1e 	bne	r2,zero,8000e1c <update_missile+0x390>
 8000de0:	e0bffd17 	ldw	r2,-12(fp)
 8000de4:	10800917 	ldw	r2,36(r2)
 8000de8:	10800017 	ldw	r2,0(r2)
 8000dec:	10806408 	cmpgei	r2,r2,400
 8000df0:	10000a1e 	bne	r2,zero,8000e1c <update_missile+0x390>
				p->missile_motion_x = (p->missile_motion_x_prev);
 8000df4:	e0bffd17 	ldw	r2,-12(fp)
 8000df8:	10c01017 	ldw	r3,64(r2)
 8000dfc:	e0bffd17 	ldw	r2,-12(fp)
 8000e00:	10c00e15 	stw	r3,56(r2)
				p->missile_motion_y = -(p->missile_motion_y_prev);
 8000e04:	e0bffd17 	ldw	r2,-12(fp)
 8000e08:	10801117 	ldw	r2,68(r2)
 8000e0c:	0087c83a 	sub	r3,zero,r2
 8000e10:	e0bffd17 	ldw	r2,-12(fp)
 8000e14:	10c00f15 	stw	r3,60(r2)
 8000e18:	00018d06 	br	8001450 <update_missile+0x9c4>
			}
			else if((*(p->missile_x) > 320 && *(p->missile_y)> 220) || (*(p->missile_x) < 320 && *(p->missile_y)< 220)){
 8000e1c:	e0bffd17 	ldw	r2,-12(fp)
 8000e20:	10800917 	ldw	r2,36(r2)
 8000e24:	10800017 	ldw	r2,0(r2)
 8000e28:	10805050 	cmplti	r2,r2,321
 8000e2c:	1000051e 	bne	r2,zero,8000e44 <update_missile+0x3b8>
 8000e30:	e0bffd17 	ldw	r2,-12(fp)
 8000e34:	10800a17 	ldw	r2,40(r2)
 8000e38:	10800017 	ldw	r2,0(r2)
 8000e3c:	10803748 	cmpgei	r2,r2,221
 8000e40:	10000a1e 	bne	r2,zero,8000e6c <update_missile+0x3e0>
 8000e44:	e0bffd17 	ldw	r2,-12(fp)
 8000e48:	10800917 	ldw	r2,36(r2)
 8000e4c:	10800017 	ldw	r2,0(r2)
 8000e50:	10805008 	cmpgei	r2,r2,320
 8000e54:	1000c31e 	bne	r2,zero,8001164 <update_missile+0x6d8>
 8000e58:	e0bffd17 	ldw	r2,-12(fp)
 8000e5c:	10800a17 	ldw	r2,40(r2)
 8000e60:	10800017 	ldw	r2,0(r2)
 8000e64:	10803708 	cmpgei	r2,r2,220
 8000e68:	1000be1e 	bne	r2,zero,8001164 <update_missile+0x6d8>
				if(p->missile_motion_y == 0){
 8000e6c:	e0bffd17 	ldw	r2,-12(fp)
 8000e70:	10800f17 	ldw	r2,60(r2)
 8000e74:	1000081e 	bne	r2,zero,8000e98 <update_missile+0x40c>
					p->missile_motion_x = 0;
 8000e78:	e0bffd17 	ldw	r2,-12(fp)
 8000e7c:	10000e15 	stw	zero,56(r2)
					p->missile_motion_y = -(p->missile_motion_x_prev);
 8000e80:	e0bffd17 	ldw	r2,-12(fp)
 8000e84:	10801017 	ldw	r2,64(r2)
 8000e88:	0087c83a 	sub	r3,zero,r2
 8000e8c:	e0bffd17 	ldw	r2,-12(fp)
 8000e90:	10c00f15 	stw	r3,60(r2)
			else if((*(p->missile_y) > 370 && *(p->missile_x) > 128 && *(p->missile_x) < 400)){
				p->missile_motion_x = (p->missile_motion_x_prev);
				p->missile_motion_y = -(p->missile_motion_y_prev);
			}
			else if((*(p->missile_x) > 320 && *(p->missile_y)> 220) || (*(p->missile_x) < 320 && *(p->missile_y)< 220)){
				if(p->missile_motion_y == 0){
 8000e94:	00016e06 	br	8001450 <update_missile+0x9c4>
					p->missile_motion_x = 0;
					p->missile_motion_y = -(p->missile_motion_x_prev);
				}
				else if(p->missile_motion_x == 0){
 8000e98:	e0bffd17 	ldw	r2,-12(fp)
 8000e9c:	10800e17 	ldw	r2,56(r2)
 8000ea0:	1000081e 	bne	r2,zero,8000ec4 <update_missile+0x438>
					p->missile_motion_x = -(p->missile_motion_y_prev);
 8000ea4:	e0bffd17 	ldw	r2,-12(fp)
 8000ea8:	10801117 	ldw	r2,68(r2)
 8000eac:	0087c83a 	sub	r3,zero,r2
 8000eb0:	e0bffd17 	ldw	r2,-12(fp)
 8000eb4:	10c00e15 	stw	r3,56(r2)
					p->missile_motion_y = 0;
 8000eb8:	e0bffd17 	ldw	r2,-12(fp)
 8000ebc:	10000f15 	stw	zero,60(r2)
			else if((*(p->missile_y) > 370 && *(p->missile_x) > 128 && *(p->missile_x) < 400)){
				p->missile_motion_x = (p->missile_motion_x_prev);
				p->missile_motion_y = -(p->missile_motion_y_prev);
			}
			else if((*(p->missile_x) > 320 && *(p->missile_y)> 220) || (*(p->missile_x) < 320 && *(p->missile_y)< 220)){
				if(p->missile_motion_y == 0){
 8000ec0:	00016306 	br	8001450 <update_missile+0x9c4>
					p->missile_motion_x = -(p->missile_motion_y_prev);
					p->missile_motion_y = 0;
				}
				else{
					double theta;
					if((p->missile_motion_x < 0 && p->missile_motion_y < 0) || (p->missile_motion_x < 0 && p->missile_motion_y > 0))
 8000ec4:	e0bffd17 	ldw	r2,-12(fp)
 8000ec8:	10800e17 	ldw	r2,56(r2)
 8000ecc:	1000030e 	bge	r2,zero,8000edc <update_missile+0x450>
 8000ed0:	e0bffd17 	ldw	r2,-12(fp)
 8000ed4:	10800f17 	ldw	r2,60(r2)
 8000ed8:	10000616 	blt	r2,zero,8000ef4 <update_missile+0x468>
 8000edc:	e0bffd17 	ldw	r2,-12(fp)
 8000ee0:	10800e17 	ldw	r2,56(r2)
 8000ee4:	10003f0e 	bge	r2,zero,8000fe4 <update_missile+0x558>
 8000ee8:	e0bffd17 	ldw	r2,-12(fp)
 8000eec:	10800f17 	ldw	r2,60(r2)
 8000ef0:	00803c0e 	bge	zero,r2,8000fe4 <update_missile+0x558>
						theta = (int)((atan(p->missile_motion_y / p->missile_motion_x) * 180 / M_PI) - 180 )% 360;
 8000ef4:	e0bffd17 	ldw	r2,-12(fp)
 8000ef8:	10c00f17 	ldw	r3,60(r2)
 8000efc:	e0bffd17 	ldw	r2,-12(fp)
 8000f00:	10800e17 	ldw	r2,56(r2)
 8000f04:	100b883a 	mov	r5,r2
 8000f08:	1809883a 	mov	r4,r3
 8000f0c:	8007c600 	call	8007c60 <__divsi3>
 8000f10:	1009883a 	mov	r4,r2
 8000f14:	800a4040 	call	800a404 <__floatsidf>
 8000f18:	100b883a 	mov	r5,r2
 8000f1c:	180d883a 	mov	r6,r3
 8000f20:	2809883a 	mov	r4,r5
 8000f24:	300b883a 	mov	r5,r6
 8000f28:	80054d00 	call	80054d0 <atan>
 8000f2c:	1011883a 	mov	r8,r2
 8000f30:	1813883a 	mov	r9,r3
 8000f34:	000d883a 	mov	r6,zero
 8000f38:	01d019f4 	movhi	r7,16487
 8000f3c:	39e00004 	addi	r7,r7,-32768
 8000f40:	4009883a 	mov	r4,r8
 8000f44:	480b883a 	mov	r5,r9
 8000f48:	800921c0 	call	800921c <__muldf3>
 8000f4c:	1009883a 	mov	r4,r2
 8000f50:	180b883a 	mov	r5,r3
 8000f54:	2005883a 	mov	r2,r4
 8000f58:	2807883a 	mov	r3,r5
 8000f5c:	01951134 	movhi	r6,21572
 8000f60:	318b4604 	addi	r6,r6,11544
 8000f64:	01d00274 	movhi	r7,16393
 8000f68:	39c87ec4 	addi	r7,r7,8699
 8000f6c:	1009883a 	mov	r4,r2
 8000f70:	180b883a 	mov	r5,r3
 8000f74:	80086e80 	call	80086e8 <__divdf3>
 8000f78:	1009883a 	mov	r4,r2
 8000f7c:	180b883a 	mov	r5,r3
 8000f80:	2005883a 	mov	r2,r4
 8000f84:	2807883a 	mov	r3,r5
 8000f88:	000d883a 	mov	r6,zero
 8000f8c:	01d019f4 	movhi	r7,16487
 8000f90:	39e00004 	addi	r7,r7,-32768
 8000f94:	1009883a 	mov	r4,r2
 8000f98:	180b883a 	mov	r5,r3
 8000f9c:	8009a880 	call	8009a88 <__subdf3>
 8000fa0:	1009883a 	mov	r4,r2
 8000fa4:	180b883a 	mov	r5,r3
 8000fa8:	2005883a 	mov	r2,r4
 8000fac:	2807883a 	mov	r3,r5
 8000fb0:	1009883a 	mov	r4,r2
 8000fb4:	180b883a 	mov	r5,r3
 8000fb8:	800a3840 	call	800a384 <__fixdfsi>
 8000fbc:	01405a04 	movi	r5,360
 8000fc0:	1009883a 	mov	r4,r2
 8000fc4:	8007ce40 	call	8007ce4 <__modsi3>
 8000fc8:	1009883a 	mov	r4,r2
 8000fcc:	800a4040 	call	800a404 <__floatsidf>
 8000fd0:	1009883a 	mov	r4,r2
 8000fd4:	180b883a 	mov	r5,r3
 8000fd8:	e13ff315 	stw	r4,-52(fp)
 8000fdc:	e17ff415 	stw	r5,-48(fp)
 8000fe0:	00002506 	br	8001078 <update_missile+0x5ec>
					else
						theta = atan(p->missile_motion_y / p->missile_motion_x) * 180 / M_PI;
 8000fe4:	e0bffd17 	ldw	r2,-12(fp)
 8000fe8:	10c00f17 	ldw	r3,60(r2)
 8000fec:	e0bffd17 	ldw	r2,-12(fp)
 8000ff0:	10800e17 	ldw	r2,56(r2)
 8000ff4:	100b883a 	mov	r5,r2
 8000ff8:	1809883a 	mov	r4,r3
 8000ffc:	8007c600 	call	8007c60 <__divsi3>
 8001000:	1009883a 	mov	r4,r2
 8001004:	800a4040 	call	800a404 <__floatsidf>
 8001008:	100b883a 	mov	r5,r2
 800100c:	180d883a 	mov	r6,r3
 8001010:	2809883a 	mov	r4,r5
 8001014:	300b883a 	mov	r5,r6
 8001018:	80054d00 	call	80054d0 <atan>
 800101c:	1011883a 	mov	r8,r2
 8001020:	1813883a 	mov	r9,r3
 8001024:	000d883a 	mov	r6,zero
 8001028:	01d019f4 	movhi	r7,16487
 800102c:	39e00004 	addi	r7,r7,-32768
 8001030:	4009883a 	mov	r4,r8
 8001034:	480b883a 	mov	r5,r9
 8001038:	800921c0 	call	800921c <__muldf3>
 800103c:	1009883a 	mov	r4,r2
 8001040:	180b883a 	mov	r5,r3
 8001044:	2005883a 	mov	r2,r4
 8001048:	2807883a 	mov	r3,r5
 800104c:	01951134 	movhi	r6,21572
 8001050:	318b4604 	addi	r6,r6,11544
 8001054:	01d00274 	movhi	r7,16393
 8001058:	39c87ec4 	addi	r7,r7,8699
 800105c:	1009883a 	mov	r4,r2
 8001060:	180b883a 	mov	r5,r3
 8001064:	80086e80 	call	80086e8 <__divdf3>
 8001068:	1009883a 	mov	r4,r2
 800106c:	180b883a 	mov	r5,r3
 8001070:	e13ff315 	stw	r4,-52(fp)
 8001074:	e17ff415 	stw	r5,-48(fp)
					double theta_ball = 90 - theta;
 8001078:	e1bff317 	ldw	r6,-52(fp)
 800107c:	e1fff417 	ldw	r7,-48(fp)
 8001080:	0009883a 	mov	r4,zero
 8001084:	015015f4 	movhi	r5,16471
 8001088:	29600004 	addi	r5,r5,-32768
 800108c:	8009a880 	call	8009a88 <__subdf3>
 8001090:	1009883a 	mov	r4,r2
 8001094:	180b883a 	mov	r5,r3
 8001098:	e13ff915 	stw	r4,-28(fp)
 800109c:	e17ffa15 	stw	r5,-24(fp)
					p->missile_motion_x = *(g->cos + (int)theta_ball) * -5;
 80010a0:	e0800317 	ldw	r2,12(fp)
 80010a4:	14001417 	ldw	r16,80(r2)
 80010a8:	e13ff917 	ldw	r4,-28(fp)
 80010ac:	e17ffa17 	ldw	r5,-24(fp)
 80010b0:	800a3840 	call	800a384 <__fixdfsi>
 80010b4:	100490fa 	slli	r2,r2,3
 80010b8:	8089883a 	add	r4,r16,r2
 80010bc:	20800017 	ldw	r2,0(r4)
 80010c0:	20c00117 	ldw	r3,4(r4)
 80010c4:	000d883a 	mov	r6,zero
 80010c8:	01f00534 	movhi	r7,49172
 80010cc:	1009883a 	mov	r4,r2
 80010d0:	180b883a 	mov	r5,r3
 80010d4:	800921c0 	call	800921c <__muldf3>
 80010d8:	1009883a 	mov	r4,r2
 80010dc:	180b883a 	mov	r5,r3
 80010e0:	2005883a 	mov	r2,r4
 80010e4:	2807883a 	mov	r3,r5
 80010e8:	1009883a 	mov	r4,r2
 80010ec:	180b883a 	mov	r5,r3
 80010f0:	800a3840 	call	800a384 <__fixdfsi>
 80010f4:	1007883a 	mov	r3,r2
 80010f8:	e0bffd17 	ldw	r2,-12(fp)
 80010fc:	10c00e15 	stw	r3,56(r2)
					p->missile_motion_y = *(g->sin + (int)theta_ball) * -5;
 8001100:	e0800317 	ldw	r2,12(fp)
 8001104:	14001317 	ldw	r16,76(r2)
 8001108:	e13ff917 	ldw	r4,-28(fp)
 800110c:	e17ffa17 	ldw	r5,-24(fp)
 8001110:	800a3840 	call	800a384 <__fixdfsi>
 8001114:	100490fa 	slli	r2,r2,3
 8001118:	8089883a 	add	r4,r16,r2
 800111c:	20800017 	ldw	r2,0(r4)
 8001120:	20c00117 	ldw	r3,4(r4)
 8001124:	000d883a 	mov	r6,zero
 8001128:	01f00534 	movhi	r7,49172
 800112c:	1009883a 	mov	r4,r2
 8001130:	180b883a 	mov	r5,r3
 8001134:	800921c0 	call	800921c <__muldf3>
 8001138:	1009883a 	mov	r4,r2
 800113c:	180b883a 	mov	r5,r3
 8001140:	2005883a 	mov	r2,r4
 8001144:	2807883a 	mov	r3,r5
 8001148:	1009883a 	mov	r4,r2
 800114c:	180b883a 	mov	r5,r3
 8001150:	800a3840 	call	800a384 <__fixdfsi>
 8001154:	1007883a 	mov	r3,r2
 8001158:	e0bffd17 	ldw	r2,-12(fp)
 800115c:	10c00f15 	stw	r3,60(r2)
			else if((*(p->missile_y) > 370 && *(p->missile_x) > 128 && *(p->missile_x) < 400)){
				p->missile_motion_x = (p->missile_motion_x_prev);
				p->missile_motion_y = -(p->missile_motion_y_prev);
			}
			else if((*(p->missile_x) > 320 && *(p->missile_y)> 220) || (*(p->missile_x) < 320 && *(p->missile_y)< 220)){
				if(p->missile_motion_y == 0){
 8001160:	0000bb06 	br	8001450 <update_missile+0x9c4>
					p->missile_motion_x = *(g->cos + (int)theta_ball) * -5;
					p->missile_motion_y = *(g->sin + (int)theta_ball) * -5;
				}
			}
			else{
				if(p->missile_motion_y == 0){
 8001164:	e0bffd17 	ldw	r2,-12(fp)
 8001168:	10800f17 	ldw	r2,60(r2)
 800116c:	1000071e 	bne	r2,zero,800118c <update_missile+0x700>
					p->missile_motion_x = 0;
 8001170:	e0bffd17 	ldw	r2,-12(fp)
 8001174:	10000e15 	stw	zero,56(r2)
					p->missile_motion_y = (p->missile_motion_x_prev);
 8001178:	e0bffd17 	ldw	r2,-12(fp)
 800117c:	10c01017 	ldw	r3,64(r2)
 8001180:	e0bffd17 	ldw	r2,-12(fp)
 8001184:	10c00f15 	stw	r3,60(r2)
 8001188:	0000b106 	br	8001450 <update_missile+0x9c4>
				}
				else if(p->missile_motion_x == 0){
 800118c:	e0bffd17 	ldw	r2,-12(fp)
 8001190:	10800e17 	ldw	r2,56(r2)
 8001194:	1000071e 	bne	r2,zero,80011b4 <update_missile+0x728>
					p->missile_motion_x = (p->missile_motion_y_prev);
 8001198:	e0bffd17 	ldw	r2,-12(fp)
 800119c:	10c01117 	ldw	r3,68(r2)
 80011a0:	e0bffd17 	ldw	r2,-12(fp)
 80011a4:	10c00e15 	stw	r3,56(r2)
					p->missile_motion_y = 0;
 80011a8:	e0bffd17 	ldw	r2,-12(fp)
 80011ac:	10000f15 	stw	zero,60(r2)
 80011b0:	0000a706 	br	8001450 <update_missile+0x9c4>
				}
				else{
					double theta;
					if((p->missile_motion_x < 0 && p->missile_motion_y < 0) || (p->missile_motion_x < 0 && p->missile_motion_y > 0))
 80011b4:	e0bffd17 	ldw	r2,-12(fp)
 80011b8:	10800e17 	ldw	r2,56(r2)
 80011bc:	1000030e 	bge	r2,zero,80011cc <update_missile+0x740>
 80011c0:	e0bffd17 	ldw	r2,-12(fp)
 80011c4:	10800f17 	ldw	r2,60(r2)
 80011c8:	10000616 	blt	r2,zero,80011e4 <update_missile+0x758>
 80011cc:	e0bffd17 	ldw	r2,-12(fp)
 80011d0:	10800e17 	ldw	r2,56(r2)
 80011d4:	10003f0e 	bge	r2,zero,80012d4 <update_missile+0x848>
 80011d8:	e0bffd17 	ldw	r2,-12(fp)
 80011dc:	10800f17 	ldw	r2,60(r2)
 80011e0:	00803c0e 	bge	zero,r2,80012d4 <update_missile+0x848>
						theta = (int)((atan(p->missile_motion_y / p->missile_motion_x) * 180 / M_PI) - 180 )% 360;
 80011e4:	e0bffd17 	ldw	r2,-12(fp)
 80011e8:	10c00f17 	ldw	r3,60(r2)
 80011ec:	e0bffd17 	ldw	r2,-12(fp)
 80011f0:	10800e17 	ldw	r2,56(r2)
 80011f4:	100b883a 	mov	r5,r2
 80011f8:	1809883a 	mov	r4,r3
 80011fc:	8007c600 	call	8007c60 <__divsi3>
 8001200:	1009883a 	mov	r4,r2
 8001204:	800a4040 	call	800a404 <__floatsidf>
 8001208:	100b883a 	mov	r5,r2
 800120c:	180d883a 	mov	r6,r3
 8001210:	2809883a 	mov	r4,r5
 8001214:	300b883a 	mov	r5,r6
 8001218:	80054d00 	call	80054d0 <atan>
 800121c:	1011883a 	mov	r8,r2
 8001220:	1813883a 	mov	r9,r3
 8001224:	000d883a 	mov	r6,zero
 8001228:	01d019f4 	movhi	r7,16487
 800122c:	39e00004 	addi	r7,r7,-32768
 8001230:	4009883a 	mov	r4,r8
 8001234:	480b883a 	mov	r5,r9
 8001238:	800921c0 	call	800921c <__muldf3>
 800123c:	1009883a 	mov	r4,r2
 8001240:	180b883a 	mov	r5,r3
 8001244:	2005883a 	mov	r2,r4
 8001248:	2807883a 	mov	r3,r5
 800124c:	01951134 	movhi	r6,21572
 8001250:	318b4604 	addi	r6,r6,11544
 8001254:	01d00274 	movhi	r7,16393
 8001258:	39c87ec4 	addi	r7,r7,8699
 800125c:	1009883a 	mov	r4,r2
 8001260:	180b883a 	mov	r5,r3
 8001264:	80086e80 	call	80086e8 <__divdf3>
 8001268:	1009883a 	mov	r4,r2
 800126c:	180b883a 	mov	r5,r3
 8001270:	2005883a 	mov	r2,r4
 8001274:	2807883a 	mov	r3,r5
 8001278:	000d883a 	mov	r6,zero
 800127c:	01d019f4 	movhi	r7,16487
 8001280:	39e00004 	addi	r7,r7,-32768
 8001284:	1009883a 	mov	r4,r2
 8001288:	180b883a 	mov	r5,r3
 800128c:	8009a880 	call	8009a88 <__subdf3>
 8001290:	1009883a 	mov	r4,r2
 8001294:	180b883a 	mov	r5,r3
 8001298:	2005883a 	mov	r2,r4
 800129c:	2807883a 	mov	r3,r5
 80012a0:	1009883a 	mov	r4,r2
 80012a4:	180b883a 	mov	r5,r3
 80012a8:	800a3840 	call	800a384 <__fixdfsi>
 80012ac:	01405a04 	movi	r5,360
 80012b0:	1009883a 	mov	r4,r2
 80012b4:	8007ce40 	call	8007ce4 <__modsi3>
 80012b8:	1009883a 	mov	r4,r2
 80012bc:	800a4040 	call	800a404 <__floatsidf>
 80012c0:	1009883a 	mov	r4,r2
 80012c4:	180b883a 	mov	r5,r3
 80012c8:	e13ff515 	stw	r4,-44(fp)
 80012cc:	e17ff615 	stw	r5,-40(fp)
 80012d0:	00002506 	br	8001368 <update_missile+0x8dc>
					else
						theta = atan(p->missile_motion_y / p->missile_motion_x) * 180 / M_PI;
 80012d4:	e0bffd17 	ldw	r2,-12(fp)
 80012d8:	10c00f17 	ldw	r3,60(r2)
 80012dc:	e0bffd17 	ldw	r2,-12(fp)
 80012e0:	10800e17 	ldw	r2,56(r2)
 80012e4:	100b883a 	mov	r5,r2
 80012e8:	1809883a 	mov	r4,r3
 80012ec:	8007c600 	call	8007c60 <__divsi3>
 80012f0:	1009883a 	mov	r4,r2
 80012f4:	800a4040 	call	800a404 <__floatsidf>
 80012f8:	100b883a 	mov	r5,r2
 80012fc:	180d883a 	mov	r6,r3
 8001300:	2809883a 	mov	r4,r5
 8001304:	300b883a 	mov	r5,r6
 8001308:	80054d00 	call	80054d0 <atan>
 800130c:	1011883a 	mov	r8,r2
 8001310:	1813883a 	mov	r9,r3
 8001314:	000d883a 	mov	r6,zero
 8001318:	01d019f4 	movhi	r7,16487
 800131c:	39e00004 	addi	r7,r7,-32768
 8001320:	4009883a 	mov	r4,r8
 8001324:	480b883a 	mov	r5,r9
 8001328:	800921c0 	call	800921c <__muldf3>
 800132c:	1009883a 	mov	r4,r2
 8001330:	180b883a 	mov	r5,r3
 8001334:	2005883a 	mov	r2,r4
 8001338:	2807883a 	mov	r3,r5
 800133c:	01951134 	movhi	r6,21572
 8001340:	318b4604 	addi	r6,r6,11544
 8001344:	01d00274 	movhi	r7,16393
 8001348:	39c87ec4 	addi	r7,r7,8699
 800134c:	1009883a 	mov	r4,r2
 8001350:	180b883a 	mov	r5,r3
 8001354:	80086e80 	call	80086e8 <__divdf3>
 8001358:	1009883a 	mov	r4,r2
 800135c:	180b883a 	mov	r5,r3
 8001360:	e13ff515 	stw	r4,-44(fp)
 8001364:	e17ff615 	stw	r5,-40(fp)
					double theta_ball = 90 - theta;
 8001368:	e1bff517 	ldw	r6,-44(fp)
 800136c:	e1fff617 	ldw	r7,-40(fp)
 8001370:	0009883a 	mov	r4,zero
 8001374:	015015f4 	movhi	r5,16471
 8001378:	29600004 	addi	r5,r5,-32768
 800137c:	8009a880 	call	8009a88 <__subdf3>
 8001380:	1009883a 	mov	r4,r2
 8001384:	180b883a 	mov	r5,r3
 8001388:	e13ff715 	stw	r4,-36(fp)
 800138c:	e17ff815 	stw	r5,-32(fp)
					p->missile_motion_x = *(g->cos + (int)theta_ball) * 5;
 8001390:	e0800317 	ldw	r2,12(fp)
 8001394:	14001417 	ldw	r16,80(r2)
 8001398:	e13ff717 	ldw	r4,-36(fp)
 800139c:	e17ff817 	ldw	r5,-32(fp)
 80013a0:	800a3840 	call	800a384 <__fixdfsi>
 80013a4:	100490fa 	slli	r2,r2,3
 80013a8:	8089883a 	add	r4,r16,r2
 80013ac:	20800017 	ldw	r2,0(r4)
 80013b0:	20c00117 	ldw	r3,4(r4)
 80013b4:	000d883a 	mov	r6,zero
 80013b8:	01d00534 	movhi	r7,16404
 80013bc:	1009883a 	mov	r4,r2
 80013c0:	180b883a 	mov	r5,r3
 80013c4:	800921c0 	call	800921c <__muldf3>
 80013c8:	1009883a 	mov	r4,r2
 80013cc:	180b883a 	mov	r5,r3
 80013d0:	2005883a 	mov	r2,r4
 80013d4:	2807883a 	mov	r3,r5
 80013d8:	1009883a 	mov	r4,r2
 80013dc:	180b883a 	mov	r5,r3
 80013e0:	800a3840 	call	800a384 <__fixdfsi>
 80013e4:	1007883a 	mov	r3,r2
 80013e8:	e0bffd17 	ldw	r2,-12(fp)
 80013ec:	10c00e15 	stw	r3,56(r2)
					p->missile_motion_y = *(g->sin + (int)theta_ball) * 5;
 80013f0:	e0800317 	ldw	r2,12(fp)
 80013f4:	14001317 	ldw	r16,76(r2)
 80013f8:	e13ff717 	ldw	r4,-36(fp)
 80013fc:	e17ff817 	ldw	r5,-32(fp)
 8001400:	800a3840 	call	800a384 <__fixdfsi>
 8001404:	100490fa 	slli	r2,r2,3
 8001408:	8089883a 	add	r4,r16,r2
 800140c:	20800017 	ldw	r2,0(r4)
 8001410:	20c00117 	ldw	r3,4(r4)
 8001414:	000d883a 	mov	r6,zero
 8001418:	01d00534 	movhi	r7,16404
 800141c:	1009883a 	mov	r4,r2
 8001420:	180b883a 	mov	r5,r3
 8001424:	800921c0 	call	800921c <__muldf3>
 8001428:	1009883a 	mov	r4,r2
 800142c:	180b883a 	mov	r5,r3
 8001430:	2005883a 	mov	r2,r4
 8001434:	2807883a 	mov	r3,r5
 8001438:	1009883a 	mov	r4,r2
 800143c:	180b883a 	mov	r5,r3
 8001440:	800a3840 	call	800a384 <__fixdfsi>
 8001444:	1007883a 	mov	r3,r2
 8001448:	e0bffd17 	ldw	r2,-12(fp)
 800144c:	10c00f15 	stw	r3,60(r2)
				}
			}
//			p->missile_motion_x = -1*(p->missile_motion_x_prev);
//			p->missile_motion_y = -1*(p->missile_motion_y_prev);
			*(p->missile_x) += p->missile_motion_x;
 8001450:	e0bffd17 	ldw	r2,-12(fp)
 8001454:	10800917 	ldw	r2,36(r2)
 8001458:	e0fffd17 	ldw	r3,-12(fp)
 800145c:	18c00917 	ldw	r3,36(r3)
 8001460:	19000017 	ldw	r4,0(r3)
 8001464:	e0fffd17 	ldw	r3,-12(fp)
 8001468:	18c00e17 	ldw	r3,56(r3)
 800146c:	20c7883a 	add	r3,r4,r3
 8001470:	10c00015 	stw	r3,0(r2)
			*(p->missile_y) += p->missile_motion_y;
 8001474:	e0bffd17 	ldw	r2,-12(fp)
 8001478:	10800a17 	ldw	r2,40(r2)
 800147c:	e0fffd17 	ldw	r3,-12(fp)
 8001480:	18c00a17 	ldw	r3,40(r3)
 8001484:	19000017 	ldw	r4,0(r3)
 8001488:	e0fffd17 	ldw	r3,-12(fp)
 800148c:	18c00f17 	ldw	r3,60(r3)
 8001490:	20c7883a 	add	r3,r4,r3
 8001494:	10c00015 	stw	r3,0(r2)
			(p->missile_motion_x_prev) = p->missile_motion_x;
 8001498:	e0bffd17 	ldw	r2,-12(fp)
 800149c:	10c00e17 	ldw	r3,56(r2)
 80014a0:	e0bffd17 	ldw	r2,-12(fp)
 80014a4:	10c01015 	stw	r3,64(r2)
			(p->missile_motion_y_prev) = p->missile_motion_y;
 80014a8:	e0bffd17 	ldw	r2,-12(fp)
 80014ac:	10c00f17 	ldw	r3,60(r2)
 80014b0:	e0bffd17 	ldw	r2,-12(fp)
 80014b4:	10c01115 	stw	r3,68(r2)
			p->missile_bounce += 1;
 80014b8:	e0bffd17 	ldw	r2,-12(fp)
 80014bc:	10801a17 	ldw	r2,104(r2)
 80014c0:	10c00044 	addi	r3,r2,1
 80014c4:	e0bffd17 	ldw	r2,-12(fp)
 80014c8:	10c01a15 	stw	r3,104(r2)
 80014cc:	00001c06 	br	8001540 <update_missile+0xab4>
		}
		else{
			p->missile_x_prev = *(p->missile_x);
 80014d0:	e0bffd17 	ldw	r2,-12(fp)
 80014d4:	10800917 	ldw	r2,36(r2)
 80014d8:	10c00017 	ldw	r3,0(r2)
 80014dc:	e0bffd17 	ldw	r2,-12(fp)
 80014e0:	10c00b15 	stw	r3,44(r2)
			p->missile_y_prev = *(p->missile_y);
 80014e4:	e0bffd17 	ldw	r2,-12(fp)
 80014e8:	10800a17 	ldw	r2,40(r2)
 80014ec:	10c00017 	ldw	r3,0(r2)
 80014f0:	e0bffd17 	ldw	r2,-12(fp)
 80014f4:	10c00c15 	stw	r3,48(r2)
			*(p->missile_x) += p->missile_motion_x;
 80014f8:	e0bffd17 	ldw	r2,-12(fp)
 80014fc:	10800917 	ldw	r2,36(r2)
 8001500:	e0fffd17 	ldw	r3,-12(fp)
 8001504:	18c00917 	ldw	r3,36(r3)
 8001508:	19000017 	ldw	r4,0(r3)
 800150c:	e0fffd17 	ldw	r3,-12(fp)
 8001510:	18c00e17 	ldw	r3,56(r3)
 8001514:	20c7883a 	add	r3,r4,r3
 8001518:	10c00015 	stw	r3,0(r2)
			*(p->missile_y) += p->missile_motion_y;
 800151c:	e0bffd17 	ldw	r2,-12(fp)
 8001520:	10800a17 	ldw	r2,40(r2)
 8001524:	e0fffd17 	ldw	r3,-12(fp)
 8001528:	18c00a17 	ldw	r3,40(r3)
 800152c:	19000017 	ldw	r4,0(r3)
 8001530:	e0fffd17 	ldw	r3,-12(fp)
 8001534:	18c00f17 	ldw	r3,60(r3)
 8001538:	20c7883a 	add	r3,r4,r3
 800153c:	10c00015 	stw	r3,0(r2)
		}
		pcounter->missile_motion_counter = 0;
 8001540:	e0bffe17 	ldw	r2,-8(fp)
 8001544:	10000415 	stw	zero,16(r2)
 8001548:	00001c06 	br	80015bc <update_missile+0xb30>

	}
	else if(isOnscreen(*(p->missile_x), *(p->missile_y)) == 0 || p->missile_bounce == BOUNCE_LIMIT){
 800154c:	e0bffd17 	ldw	r2,-12(fp)
 8001550:	10800917 	ldw	r2,36(r2)
 8001554:	10c00017 	ldw	r3,0(r2)
 8001558:	e0bffd17 	ldw	r2,-12(fp)
 800155c:	10800a17 	ldw	r2,40(r2)
 8001560:	10800017 	ldw	r2,0(r2)
 8001564:	100b883a 	mov	r5,r2
 8001568:	1809883a 	mov	r4,r3
 800156c:	8000a440 	call	8000a44 <isOnscreen>
 8001570:	10000426 	beq	r2,zero,8001584 <update_missile+0xaf8>
 8001574:	e0bffd17 	ldw	r2,-12(fp)
 8001578:	10801a17 	ldw	r2,104(r2)
 800157c:	108000d8 	cmpnei	r2,r2,3
 8001580:	10000e1e 	bne	r2,zero,80015bc <update_missile+0xb30>
		*(p->missile_x) = 700;
 8001584:	e0bffd17 	ldw	r2,-12(fp)
 8001588:	10800917 	ldw	r2,36(r2)
 800158c:	00c0af04 	movi	r3,700
 8001590:	10c00015 	stw	r3,0(r2)
		*(p->missile_y) = 700;
 8001594:	e0bffd17 	ldw	r2,-12(fp)
 8001598:	10800a17 	ldw	r2,40(r2)
 800159c:	00c0af04 	movi	r3,700
 80015a0:	10c00015 	stw	r3,0(r2)
		p->missile_motion_x = 0;
 80015a4:	e0bffd17 	ldw	r2,-12(fp)
 80015a8:	10000e15 	stw	zero,56(r2)
		p->missile_motion_y = 0;
 80015ac:	e0bffd17 	ldw	r2,-12(fp)
 80015b0:	10000f15 	stw	zero,60(r2)
		p->missile_state = 0;
 80015b4:	e0bffd17 	ldw	r2,-12(fp)
 80015b8:	10000d15 	stw	zero,52(r2)
	}
	if(pcounter->missile_motion_counter > 2)
 80015bc:	e0bffe17 	ldw	r2,-8(fp)
 80015c0:	10800417 	ldw	r2,16(r2)
 80015c4:	108000d0 	cmplti	r2,r2,3
 80015c8:	1000031e 	bne	r2,zero,80015d8 <update_missile+0xb4c>
		pcounter->missile_motion_counter = 0;
 80015cc:	e0bffe17 	ldw	r2,-8(fp)
 80015d0:	10000415 	stw	zero,16(r2)
	else
		pcounter->missile_motion_counter += 1;
}
 80015d4:	00000506 	br	80015ec <update_missile+0xb60>
		p->missile_state = 0;
	}
	if(pcounter->missile_motion_counter > 2)
		pcounter->missile_motion_counter = 0;
	else
		pcounter->missile_motion_counter += 1;
 80015d8:	e0bffe17 	ldw	r2,-8(fp)
 80015dc:	10800417 	ldw	r2,16(r2)
 80015e0:	10c00044 	addi	r3,r2,1
 80015e4:	e0bffe17 	ldw	r2,-8(fp)
 80015e8:	10c00415 	stw	r3,16(r2)
}
 80015ec:	0001883a 	nop
 80015f0:	e6ffff04 	addi	sp,fp,-4
 80015f4:	dfc00217 	ldw	ra,8(sp)
 80015f8:	df000117 	ldw	fp,4(sp)
 80015fc:	dc000017 	ldw	r16,0(sp)
 8001600:	dec00304 	addi	sp,sp,12
 8001604:	f800283a 	ret

08001608 <update_player>:

void update_player(BOOT_KBD_REPORT kbdbuf, struct player* p, struct counters* pcounter, int left, int right, int forward, int backward){
 8001608:	defffa04 	addi	sp,sp,-24
 800160c:	dfc00515 	stw	ra,20(sp)
 8001610:	df000415 	stw	fp,16(sp)
 8001614:	df000404 	addi	fp,sp,16
 8001618:	e13ffc15 	stw	r4,-16(fp)
 800161c:	e17ffd15 	stw	r5,-12(fp)
 8001620:	e1bffe15 	stw	r6,-8(fp)
 8001624:	e1ffff15 	stw	r7,-4(fp)

	p->dir_prev = *(p->dir);
 8001628:	e0bffe17 	ldw	r2,-8(fp)
 800162c:	10800617 	ldw	r2,24(r2)
 8001630:	10c00003 	ldbu	r3,0(r2)
 8001634:	e0bffe17 	ldw	r2,-8(fp)
 8001638:	10c00705 	stb	r3,28(r2)
	if(isPressed(kbdbuf, left))
 800163c:	e1800217 	ldw	r6,8(fp)
 8001640:	e13ffc17 	ldw	r4,-16(fp)
 8001644:	e17ffd17 	ldw	r5,-12(fp)
 8001648:	800076c0 	call	800076c <isPressed>
 800164c:	10000426 	beq	r2,zero,8001660 <update_player+0x58>
		p->left = 1;
 8001650:	e0bffe17 	ldw	r2,-8(fp)
 8001654:	00c00044 	movi	r3,1
 8001658:	10c01615 	stw	r3,88(r2)
 800165c:	00000206 	br	8001668 <update_player+0x60>
	else
		p->left = 0;
 8001660:	e0bffe17 	ldw	r2,-8(fp)
 8001664:	10001615 	stw	zero,88(r2)

	if(isPressed(kbdbuf, right))
 8001668:	e1800317 	ldw	r6,12(fp)
 800166c:	e13ffc17 	ldw	r4,-16(fp)
 8001670:	e17ffd17 	ldw	r5,-12(fp)
 8001674:	800076c0 	call	800076c <isPressed>
 8001678:	10000426 	beq	r2,zero,800168c <update_player+0x84>
		p->right = 1;
 800167c:	e0bffe17 	ldw	r2,-8(fp)
 8001680:	00c00044 	movi	r3,1
 8001684:	10c01815 	stw	r3,96(r2)
 8001688:	00000206 	br	8001694 <update_player+0x8c>
	else
		p->right = 0;
 800168c:	e0bffe17 	ldw	r2,-8(fp)
 8001690:	10001815 	stw	zero,96(r2)

	// Increment player 1 direction state by 1 if left has rising edge
	if(p->left && p->left != p->left_prev){
 8001694:	e0bffe17 	ldw	r2,-8(fp)
 8001698:	10801617 	ldw	r2,88(r2)
 800169c:	10000e26 	beq	r2,zero,80016d8 <update_player+0xd0>
 80016a0:	e0bffe17 	ldw	r2,-8(fp)
 80016a4:	10c01617 	ldw	r3,88(r2)
 80016a8:	e0bffe17 	ldw	r2,-8(fp)
 80016ac:	10801717 	ldw	r2,92(r2)
 80016b0:	18800926 	beq	r3,r2,80016d8 <update_player+0xd0>
		*(p->dir) = p->dir_prev + 1;
 80016b4:	e0bffe17 	ldw	r2,-8(fp)
 80016b8:	10800617 	ldw	r2,24(r2)
 80016bc:	e0fffe17 	ldw	r3,-8(fp)
 80016c0:	18c00703 	ldbu	r3,28(r3)
 80016c4:	18c00044 	addi	r3,r3,1
 80016c8:	10c00005 	stb	r3,0(r2)
		pcounter->state_counter = 0;
 80016cc:	e0bfff17 	ldw	r2,-4(fp)
 80016d0:	10000115 	stw	zero,4(r2)
 80016d4:	00001006 	br	8001718 <update_player+0x110>
	}
	// Decrement player 1 direction state by 1 if right has rising edge
	else if(p->right && p->right != p->right_prev){
 80016d8:	e0bffe17 	ldw	r2,-8(fp)
 80016dc:	10801817 	ldw	r2,96(r2)
 80016e0:	10000d26 	beq	r2,zero,8001718 <update_player+0x110>
 80016e4:	e0bffe17 	ldw	r2,-8(fp)
 80016e8:	10c01817 	ldw	r3,96(r2)
 80016ec:	e0bffe17 	ldw	r2,-8(fp)
 80016f0:	10801917 	ldw	r2,100(r2)
 80016f4:	18800826 	beq	r3,r2,8001718 <update_player+0x110>
		*(p->dir) = p->dir_prev - 1;
 80016f8:	e0bffe17 	ldw	r2,-8(fp)
 80016fc:	10800617 	ldw	r2,24(r2)
 8001700:	e0fffe17 	ldw	r3,-8(fp)
 8001704:	18c00703 	ldbu	r3,28(r3)
 8001708:	18ffffc4 	addi	r3,r3,-1
 800170c:	10c00005 	stb	r3,0(r2)
		pcounter->state_counter = 0;
 8001710:	e0bfff17 	ldw	r2,-4(fp)
 8001714:	10000115 	stw	zero,4(r2)
	}
	// if left/right is pressed longer than the counter limit, it also counts as a valid input
	if(p->left && pcounter->state_counter >= STATE_COUNTER){
 8001718:	e0bffe17 	ldw	r2,-8(fp)
 800171c:	10801617 	ldw	r2,88(r2)
 8001720:	10000d26 	beq	r2,zero,8001758 <update_player+0x150>
 8001724:	e0bfff17 	ldw	r2,-4(fp)
 8001728:	10800117 	ldw	r2,4(r2)
 800172c:	108008d0 	cmplti	r2,r2,35
 8001730:	1000091e 	bne	r2,zero,8001758 <update_player+0x150>
		*(p->dir) = p->dir_prev + 1;
 8001734:	e0bffe17 	ldw	r2,-8(fp)
 8001738:	10800617 	ldw	r2,24(r2)
 800173c:	e0fffe17 	ldw	r3,-8(fp)
 8001740:	18c00703 	ldbu	r3,28(r3)
 8001744:	18c00044 	addi	r3,r3,1
 8001748:	10c00005 	stb	r3,0(r2)
		pcounter->state_counter = 0;
 800174c:	e0bfff17 	ldw	r2,-4(fp)
 8001750:	10000115 	stw	zero,4(r2)
 8001754:	00000f06 	br	8001794 <update_player+0x18c>
	}
	else if(p->right && pcounter->state_counter >= STATE_COUNTER){
 8001758:	e0bffe17 	ldw	r2,-8(fp)
 800175c:	10801817 	ldw	r2,96(r2)
 8001760:	10000c26 	beq	r2,zero,8001794 <update_player+0x18c>
 8001764:	e0bfff17 	ldw	r2,-4(fp)
 8001768:	10800117 	ldw	r2,4(r2)
 800176c:	108008d0 	cmplti	r2,r2,35
 8001770:	1000081e 	bne	r2,zero,8001794 <update_player+0x18c>
		*(p->dir) = p->dir_prev - 1;
 8001774:	e0bffe17 	ldw	r2,-8(fp)
 8001778:	10800617 	ldw	r2,24(r2)
 800177c:	e0fffe17 	ldw	r3,-8(fp)
 8001780:	18c00703 	ldbu	r3,28(r3)
 8001784:	18ffffc4 	addi	r3,r3,-1
 8001788:	10c00005 	stb	r3,0(r2)
		pcounter->state_counter = 0;
 800178c:	e0bfff17 	ldw	r2,-4(fp)
 8001790:	10000115 	stw	zero,4(r2)
	}
	// update state counter, previous left and right value
	pcounter->state_counter += 1;
 8001794:	e0bfff17 	ldw	r2,-4(fp)
 8001798:	10800117 	ldw	r2,4(r2)
 800179c:	10c00044 	addi	r3,r2,1
 80017a0:	e0bfff17 	ldw	r2,-4(fp)
 80017a4:	10c00115 	stw	r3,4(r2)
	*(p->dir) &= 0x0f;
 80017a8:	e0bffe17 	ldw	r2,-8(fp)
 80017ac:	10800617 	ldw	r2,24(r2)
 80017b0:	e0fffe17 	ldw	r3,-8(fp)
 80017b4:	18c00617 	ldw	r3,24(r3)
 80017b8:	18c00003 	ldbu	r3,0(r3)
 80017bc:	18c003cc 	andi	r3,r3,15
 80017c0:	10c00005 	stb	r3,0(r2)
	p->left_prev = p->left;
 80017c4:	e0bffe17 	ldw	r2,-8(fp)
 80017c8:	10c01617 	ldw	r3,88(r2)
 80017cc:	e0bffe17 	ldw	r2,-8(fp)
 80017d0:	10c01715 	stw	r3,92(r2)
	p->right_prev = p->right;
 80017d4:	e0bffe17 	ldw	r2,-8(fp)
 80017d8:	10c01817 	ldw	r3,96(r2)
 80017dc:	e0bffe17 	ldw	r2,-8(fp)
 80017e0:	10c01915 	stw	r3,100(r2)

	// set motion(velocity) vector based on direction of the player
	setmotion(p);
 80017e4:	e13ffe17 	ldw	r4,-8(fp)
 80017e8:	80008000 	call	8000800 <setmotion>

	// move player based on forward backward key
	if(	isPressed(kbdbuf, forward) && pcounter->motion_counter == PLAYER_MOTION_COUNTER){
 80017ec:	e1800417 	ldw	r6,16(fp)
 80017f0:	e13ffc17 	ldw	r4,-16(fp)
 80017f4:	e17ffd17 	ldw	r5,-12(fp)
 80017f8:	800076c0 	call	800076c <isPressed>
 80017fc:	10003526 	beq	r2,zero,80018d4 <update_player+0x2cc>
 8001800:	e0bfff17 	ldw	r2,-4(fp)
 8001804:	10800217 	ldw	r2,8(r2)
 8001808:	108003d8 	cmpnei	r2,r2,15
 800180c:	1000311e 	bne	r2,zero,80018d4 <update_player+0x2cc>
		if(*(p->collision) == 0 && p->collision_prev == 0){
 8001810:	e0bffe17 	ldw	r2,-8(fp)
 8001814:	10801217 	ldw	r2,72(r2)
 8001818:	10800017 	ldw	r2,0(r2)
 800181c:	1000201e 	bne	r2,zero,80018a0 <update_player+0x298>
 8001820:	e0bffe17 	ldw	r2,-8(fp)
 8001824:	10801317 	ldw	r2,76(r2)
 8001828:	10001d1e 	bne	r2,zero,80018a0 <update_player+0x298>
			p->x_loc_prev = *(p->x_loc);
 800182c:	e0bffe17 	ldw	r2,-8(fp)
 8001830:	10800017 	ldw	r2,0(r2)
 8001834:	10c00017 	ldw	r3,0(r2)
 8001838:	e0bffe17 	ldw	r2,-8(fp)
 800183c:	10c00215 	stw	r3,8(r2)
			p->y_loc_prev = *(p->y_loc);
 8001840:	e0bffe17 	ldw	r2,-8(fp)
 8001844:	10800117 	ldw	r2,4(r2)
 8001848:	10c00017 	ldw	r3,0(r2)
 800184c:	e0bffe17 	ldw	r2,-8(fp)
 8001850:	10c00315 	stw	r3,12(r2)
			*(p->x_loc) += p->motion_x;
 8001854:	e0bffe17 	ldw	r2,-8(fp)
 8001858:	10800017 	ldw	r2,0(r2)
 800185c:	e0fffe17 	ldw	r3,-8(fp)
 8001860:	18c00017 	ldw	r3,0(r3)
 8001864:	19000017 	ldw	r4,0(r3)
 8001868:	e0fffe17 	ldw	r3,-8(fp)
 800186c:	18c00417 	ldw	r3,16(r3)
 8001870:	20c7883a 	add	r3,r4,r3
 8001874:	10c00015 	stw	r3,0(r2)
			*(p->y_loc) += p->motion_y;
 8001878:	e0bffe17 	ldw	r2,-8(fp)
 800187c:	10800117 	ldw	r2,4(r2)
 8001880:	e0fffe17 	ldw	r3,-8(fp)
 8001884:	18c00117 	ldw	r3,4(r3)
 8001888:	19000017 	ldw	r4,0(r3)
 800188c:	e0fffe17 	ldw	r3,-8(fp)
 8001890:	18c00517 	ldw	r3,20(r3)
 8001894:	20c7883a 	add	r3,r4,r3
 8001898:	10c00015 	stw	r3,0(r2)
 800189c:	00000a06 	br	80018c8 <update_player+0x2c0>
		}
		else{
			*(p->x_loc) = p->x_loc_prev;
 80018a0:	e0bffe17 	ldw	r2,-8(fp)
 80018a4:	10800017 	ldw	r2,0(r2)
 80018a8:	e0fffe17 	ldw	r3,-8(fp)
 80018ac:	18c00217 	ldw	r3,8(r3)
 80018b0:	10c00015 	stw	r3,0(r2)
			*(p->y_loc) = p->y_loc_prev;
 80018b4:	e0bffe17 	ldw	r2,-8(fp)
 80018b8:	10800117 	ldw	r2,4(r2)
 80018bc:	e0fffe17 	ldw	r3,-8(fp)
 80018c0:	18c00317 	ldw	r3,12(r3)
 80018c4:	10c00015 	stw	r3,0(r2)
		}
		pcounter->motion_counter = 0;
 80018c8:	e0bfff17 	ldw	r2,-4(fp)
 80018cc:	10000215 	stw	zero,8(r2)
 80018d0:	00003606 	br	80019ac <update_player+0x3a4>
	}
	else if(isPressed(kbdbuf, backward) && pcounter->motion_counter == PLAYER_MOTION_COUNTER){
 80018d4:	e1800517 	ldw	r6,20(fp)
 80018d8:	e13ffc17 	ldw	r4,-16(fp)
 80018dc:	e17ffd17 	ldw	r5,-12(fp)
 80018e0:	800076c0 	call	800076c <isPressed>
 80018e4:	10003126 	beq	r2,zero,80019ac <update_player+0x3a4>
 80018e8:	e0bfff17 	ldw	r2,-4(fp)
 80018ec:	10800217 	ldw	r2,8(r2)
 80018f0:	108003d8 	cmpnei	r2,r2,15
 80018f4:	10002d1e 	bne	r2,zero,80019ac <update_player+0x3a4>
		if(*(p->collision) == 0){
 80018f8:	e0bffe17 	ldw	r2,-8(fp)
 80018fc:	10801217 	ldw	r2,72(r2)
 8001900:	10800017 	ldw	r2,0(r2)
 8001904:	10001d1e 	bne	r2,zero,800197c <update_player+0x374>
			p->x_loc_prev = *(p->x_loc);
 8001908:	e0bffe17 	ldw	r2,-8(fp)
 800190c:	10800017 	ldw	r2,0(r2)
 8001910:	10c00017 	ldw	r3,0(r2)
 8001914:	e0bffe17 	ldw	r2,-8(fp)
 8001918:	10c00215 	stw	r3,8(r2)
			p->y_loc_prev = *(p->y_loc);
 800191c:	e0bffe17 	ldw	r2,-8(fp)
 8001920:	10800117 	ldw	r2,4(r2)
 8001924:	10c00017 	ldw	r3,0(r2)
 8001928:	e0bffe17 	ldw	r2,-8(fp)
 800192c:	10c00315 	stw	r3,12(r2)
			*(p->x_loc) -= p->motion_x;
 8001930:	e0bffe17 	ldw	r2,-8(fp)
 8001934:	10800017 	ldw	r2,0(r2)
 8001938:	e0fffe17 	ldw	r3,-8(fp)
 800193c:	18c00017 	ldw	r3,0(r3)
 8001940:	19000017 	ldw	r4,0(r3)
 8001944:	e0fffe17 	ldw	r3,-8(fp)
 8001948:	18c00417 	ldw	r3,16(r3)
 800194c:	20c7c83a 	sub	r3,r4,r3
 8001950:	10c00015 	stw	r3,0(r2)
			*(p->y_loc) -= p->motion_y;
 8001954:	e0bffe17 	ldw	r2,-8(fp)
 8001958:	10800117 	ldw	r2,4(r2)
 800195c:	e0fffe17 	ldw	r3,-8(fp)
 8001960:	18c00117 	ldw	r3,4(r3)
 8001964:	19000017 	ldw	r4,0(r3)
 8001968:	e0fffe17 	ldw	r3,-8(fp)
 800196c:	18c00517 	ldw	r3,20(r3)
 8001970:	20c7c83a 	sub	r3,r4,r3
 8001974:	10c00015 	stw	r3,0(r2)
 8001978:	00000a06 	br	80019a4 <update_player+0x39c>
		}
		else{
			*(p->x_loc) = p->x_loc_prev;
 800197c:	e0bffe17 	ldw	r2,-8(fp)
 8001980:	10800017 	ldw	r2,0(r2)
 8001984:	e0fffe17 	ldw	r3,-8(fp)
 8001988:	18c00217 	ldw	r3,8(r3)
 800198c:	10c00015 	stw	r3,0(r2)
			*(p->y_loc) = p->y_loc_prev;
 8001990:	e0bffe17 	ldw	r2,-8(fp)
 8001994:	10800117 	ldw	r2,4(r2)
 8001998:	e0fffe17 	ldw	r3,-8(fp)
 800199c:	18c00317 	ldw	r3,12(r3)
 80019a0:	10c00015 	stw	r3,0(r2)
		}
		pcounter->motion_counter = 0;
 80019a4:	e0bfff17 	ldw	r2,-4(fp)
 80019a8:	10000215 	stw	zero,8(r2)
	}
	if(pcounter->motion_counter >20)
 80019ac:	e0bfff17 	ldw	r2,-4(fp)
 80019b0:	10800217 	ldw	r2,8(r2)
 80019b4:	10800550 	cmplti	r2,r2,21
 80019b8:	1000031e 	bne	r2,zero,80019c8 <update_player+0x3c0>
		pcounter->motion_counter = 0;
 80019bc:	e0bfff17 	ldw	r2,-4(fp)
 80019c0:	10000215 	stw	zero,8(r2)
 80019c4:	00000506 	br	80019dc <update_player+0x3d4>
	else
		pcounter->motion_counter += 1;
 80019c8:	e0bfff17 	ldw	r2,-4(fp)
 80019cc:	10800217 	ldw	r2,8(r2)
 80019d0:	10c00044 	addi	r3,r2,1
 80019d4:	e0bfff17 	ldw	r2,-4(fp)
 80019d8:	10c00215 	stw	r3,8(r2)

	// update animation
	if(p->anim_enum != NULL){
 80019dc:	e0bffe17 	ldw	r2,-8(fp)
 80019e0:	10800817 	ldw	r2,32(r2)
 80019e4:	10001b26 	beq	r2,zero,8001a54 <update_player+0x44c>
		if(pcounter->sprite_anim_counter > PLAYER_ANIM_COUNTER){
 80019e8:	e0bfff17 	ldw	r2,-4(fp)
 80019ec:	10800317 	ldw	r2,12(r2)
 80019f0:	10800b90 	cmplti	r2,r2,46
 80019f4:	10000a1e 	bne	r2,zero,8001a20 <update_player+0x418>
			*(p->anim_enum) += 1;
 80019f8:	e0bffe17 	ldw	r2,-8(fp)
 80019fc:	10800817 	ldw	r2,32(r2)
 8001a00:	e0fffe17 	ldw	r3,-8(fp)
 8001a04:	18c00817 	ldw	r3,32(r3)
 8001a08:	18c00017 	ldw	r3,0(r3)
 8001a0c:	18c00044 	addi	r3,r3,1
 8001a10:	10c00015 	stw	r3,0(r2)
			pcounter->sprite_anim_counter = 0;
 8001a14:	e0bfff17 	ldw	r2,-4(fp)
 8001a18:	10000315 	stw	zero,12(r2)
 8001a1c:	00000506 	br	8001a34 <update_player+0x42c>
		}
		else{
			pcounter->sprite_anim_counter += 1;
 8001a20:	e0bfff17 	ldw	r2,-4(fp)
 8001a24:	10800317 	ldw	r2,12(r2)
 8001a28:	10c00044 	addi	r3,r2,1
 8001a2c:	e0bfff17 	ldw	r2,-4(fp)
 8001a30:	10c00315 	stw	r3,12(r2)
		}
		if(*(p->anim_enum) > 4){
 8001a34:	e0bffe17 	ldw	r2,-8(fp)
 8001a38:	10800817 	ldw	r2,32(r2)
 8001a3c:	10800017 	ldw	r2,0(r2)
 8001a40:	10800150 	cmplti	r2,r2,5
 8001a44:	1000031e 	bne	r2,zero,8001a54 <update_player+0x44c>
			*(p->anim_enum) = 0;
 8001a48:	e0bffe17 	ldw	r2,-8(fp)
 8001a4c:	10800817 	ldw	r2,32(r2)
 8001a50:	10000015 	stw	zero,0(r2)
		}
	}
}
 8001a54:	0001883a 	nop
 8001a58:	e037883a 	mov	sp,fp
 8001a5c:	dfc00117 	ldw	ra,4(sp)
 8001a60:	df000017 	ldw	fp,0(sp)
 8001a64:	dec00204 	addi	sp,sp,8
 8001a68:	f800283a 	ret

08001a6c <missileStatehandler>:

void missileStatehandler(struct player* p){
 8001a6c:	defffe04 	addi	sp,sp,-8
 8001a70:	df000115 	stw	fp,4(sp)
 8001a74:	df000104 	addi	fp,sp,4
 8001a78:	e13fff15 	stw	r4,-4(fp)
	if(*(p->missile_collision) == 1 && *(p->missile_x) != OUT_OF_SCREEN && *(p->missile_y) != OUT_OF_SCREEN){
 8001a7c:	e0bfff17 	ldw	r2,-4(fp)
 8001a80:	10801417 	ldw	r2,80(r2)
 8001a84:	10800017 	ldw	r2,0(r2)
 8001a88:	10800058 	cmpnei	r2,r2,1
 8001a8c:	10000d1e 	bne	r2,zero,8001ac4 <missileStatehandler+0x58>
 8001a90:	e0bfff17 	ldw	r2,-4(fp)
 8001a94:	10800917 	ldw	r2,36(r2)
 8001a98:	10800017 	ldw	r2,0(r2)
 8001a9c:	1080af20 	cmpeqi	r2,r2,700
 8001aa0:	1000081e 	bne	r2,zero,8001ac4 <missileStatehandler+0x58>
 8001aa4:	e0bfff17 	ldw	r2,-4(fp)
 8001aa8:	10800a17 	ldw	r2,40(r2)
 8001aac:	10800017 	ldw	r2,0(r2)
 8001ab0:	1080af20 	cmpeqi	r2,r2,700
 8001ab4:	1000031e 	bne	r2,zero,8001ac4 <missileStatehandler+0x58>
		p->missile_state = 1;
 8001ab8:	e0bfff17 	ldw	r2,-4(fp)
 8001abc:	00c00044 	movi	r3,1
 8001ac0:	10c00d15 	stw	r3,52(r2)

	}
}
 8001ac4:	0001883a 	nop
 8001ac8:	e037883a 	mov	sp,fp
 8001acc:	df000017 	ldw	fp,0(sp)
 8001ad0:	dec00104 	addi	sp,sp,4
 8001ad4:	f800283a 	ret

08001ad8 <update_ui_anim>:
void update_ui_anim(struct Game* g, struct counters* pcounter){
 8001ad8:	defffd04 	addi	sp,sp,-12
 8001adc:	df000215 	stw	fp,8(sp)
 8001ae0:	df000204 	addi	fp,sp,8
 8001ae4:	e13ffe15 	stw	r4,-8(fp)
 8001ae8:	e17fff15 	stw	r5,-4(fp)
	g->ui_anim_enum_prev = *(g->ui_anim_enum);
 8001aec:	e0bffe17 	ldw	r2,-8(fp)
 8001af0:	10800017 	ldw	r2,0(r2)
 8001af4:	10c00017 	ldw	r3,0(r2)
 8001af8:	e0bffe17 	ldw	r2,-8(fp)
 8001afc:	10c00115 	stw	r3,4(r2)
	if(pcounter->ui_anim_counter > UI_ANIM_COUNTER){
 8001b00:	e0bfff17 	ldw	r2,-4(fp)
 8001b04:	10800017 	ldw	r2,0(r2)
 8001b08:	108011d0 	cmplti	r2,r2,71
 8001b0c:	1000091e 	bne	r2,zero,8001b34 <update_ui_anim+0x5c>
		*(g->ui_anim_enum) += 1;
 8001b10:	e0bffe17 	ldw	r2,-8(fp)
 8001b14:	10800017 	ldw	r2,0(r2)
 8001b18:	e0fffe17 	ldw	r3,-8(fp)
 8001b1c:	18c00017 	ldw	r3,0(r3)
 8001b20:	18c00017 	ldw	r3,0(r3)
 8001b24:	18c00044 	addi	r3,r3,1
 8001b28:	10c00015 	stw	r3,0(r2)
		pcounter->ui_anim_counter = 0;
 8001b2c:	e0bfff17 	ldw	r2,-4(fp)
 8001b30:	10000015 	stw	zero,0(r2)
	}
	if(*(g->ui_anim_enum) > 14){
 8001b34:	e0bffe17 	ldw	r2,-8(fp)
 8001b38:	10800017 	ldw	r2,0(r2)
 8001b3c:	10800017 	ldw	r2,0(r2)
 8001b40:	108003d0 	cmplti	r2,r2,15
 8001b44:	1000031e 	bne	r2,zero,8001b54 <update_ui_anim+0x7c>
		*(g->ui_anim_enum) = 0;
 8001b48:	e0bffe17 	ldw	r2,-8(fp)
 8001b4c:	10800017 	ldw	r2,0(r2)
 8001b50:	10000015 	stw	zero,0(r2)
	}
	pcounter->ui_anim_counter += 1;
 8001b54:	e0bfff17 	ldw	r2,-4(fp)
 8001b58:	10800017 	ldw	r2,0(r2)
 8001b5c:	10c00044 	addi	r3,r2,1
 8001b60:	e0bfff17 	ldw	r2,-4(fp)
 8001b64:	10c00015 	stw	r3,0(r2)
}
 8001b68:	0001883a 	nop
 8001b6c:	e037883a 	mov	sp,fp
 8001b70:	df000017 	ldw	fp,0(sp)
 8001b74:	dec00104 	addi	sp,sp,4
 8001b78:	f800283a 	ret

08001b7c <setLoc>:

void setLoc(struct player* p, int x, int y){
 8001b7c:	defffc04 	addi	sp,sp,-16
 8001b80:	df000315 	stw	fp,12(sp)
 8001b84:	df000304 	addi	fp,sp,12
 8001b88:	e13ffd15 	stw	r4,-12(fp)
 8001b8c:	e17ffe15 	stw	r5,-8(fp)
 8001b90:	e1bfff15 	stw	r6,-4(fp)
	*(p->x_loc) = x;
 8001b94:	e0bffd17 	ldw	r2,-12(fp)
 8001b98:	10800017 	ldw	r2,0(r2)
 8001b9c:	e0fffe17 	ldw	r3,-8(fp)
 8001ba0:	10c00015 	stw	r3,0(r2)
	*(p->y_loc) = y;
 8001ba4:	e0bffd17 	ldw	r2,-12(fp)
 8001ba8:	10800117 	ldw	r2,4(r2)
 8001bac:	e0ffff17 	ldw	r3,-4(fp)
 8001bb0:	10c00015 	stw	r3,0(r2)
}
 8001bb4:	0001883a 	nop
 8001bb8:	e037883a 	mov	sp,fp
 8001bbc:	df000017 	ldw	fp,0(sp)
 8001bc0:	dec00104 	addi	sp,sp,4
 8001bc4:	f800283a 	ret

08001bc8 <updateScore>:

void updateScore(struct Game* g, int score1, int score2){
 8001bc8:	defffc04 	addi	sp,sp,-16
 8001bcc:	df000315 	stw	fp,12(sp)
 8001bd0:	df000304 	addi	fp,sp,12
 8001bd4:	e13ffd15 	stw	r4,-12(fp)
 8001bd8:	e17ffe15 	stw	r5,-8(fp)
 8001bdc:	e1bfff15 	stw	r6,-4(fp)
	*(g->score_p1) = score1;
 8001be0:	e0bffd17 	ldw	r2,-12(fp)
 8001be4:	10800217 	ldw	r2,8(r2)
 8001be8:	e0fffe17 	ldw	r3,-8(fp)
 8001bec:	10c00015 	stw	r3,0(r2)
	*(g->score_p2) = score2;
 8001bf0:	e0bffd17 	ldw	r2,-12(fp)
 8001bf4:	10800317 	ldw	r2,12(r2)
 8001bf8:	e0ffff17 	ldw	r3,-4(fp)
 8001bfc:	10c00015 	stw	r3,0(r2)
}
 8001c00:	0001883a 	nop
 8001c04:	e037883a 	mov	sp,fp
 8001c08:	df000017 	ldw	fp,0(sp)
 8001c0c:	dec00104 	addi	sp,sp,4
 8001c10:	f800283a 	ret

08001c14 <isHit>:

int isHit(struct Game* g, struct player* p1, struct player* p2){
 8001c14:	defffc04 	addi	sp,sp,-16
 8001c18:	df000315 	stw	fp,12(sp)
 8001c1c:	df000304 	addi	fp,sp,12
 8001c20:	e13ffd15 	stw	r4,-12(fp)
 8001c24:	e17ffe15 	stw	r5,-8(fp)
 8001c28:	e1bfff15 	stw	r6,-4(fp)
	if(*(g->hit_p1) && *(g->hit_p1) != g->hit_p1_prev)
 8001c2c:	e0bffd17 	ldw	r2,-12(fp)
 8001c30:	10800417 	ldw	r2,16(r2)
 8001c34:	10800017 	ldw	r2,0(r2)
 8001c38:	10000826 	beq	r2,zero,8001c5c <isHit+0x48>
 8001c3c:	e0bffd17 	ldw	r2,-12(fp)
 8001c40:	10800417 	ldw	r2,16(r2)
 8001c44:	10c00017 	ldw	r3,0(r2)
 8001c48:	e0bffd17 	ldw	r2,-12(fp)
 8001c4c:	10800517 	ldw	r2,20(r2)
 8001c50:	18800226 	beq	r3,r2,8001c5c <isHit+0x48>
		return 1;
 8001c54:	00800044 	movi	r2,1
 8001c58:	00002b06 	br	8001d08 <isHit+0xf4>
	else if(*(g->hit_p2) && *(g->hit_p2) != g->hit_p2_prev)
 8001c5c:	e0bffd17 	ldw	r2,-12(fp)
 8001c60:	10800617 	ldw	r2,24(r2)
 8001c64:	10800017 	ldw	r2,0(r2)
 8001c68:	10000826 	beq	r2,zero,8001c8c <isHit+0x78>
 8001c6c:	e0bffd17 	ldw	r2,-12(fp)
 8001c70:	10800617 	ldw	r2,24(r2)
 8001c74:	10c00017 	ldw	r3,0(r2)
 8001c78:	e0bffd17 	ldw	r2,-12(fp)
 8001c7c:	10800717 	ldw	r2,28(r2)
 8001c80:	18800226 	beq	r3,r2,8001c8c <isHit+0x78>
		return 2;
 8001c84:	00800084 	movi	r2,2
 8001c88:	00001f06 	br	8001d08 <isHit+0xf4>
	if(*(g->suicide_p1) && *(g->suicide_p1) != g->suicide_p1_prev && (p1->missile_bounce) > 0)
 8001c8c:	e0bffd17 	ldw	r2,-12(fp)
 8001c90:	10800817 	ldw	r2,32(r2)
 8001c94:	10800017 	ldw	r2,0(r2)
 8001c98:	10000b26 	beq	r2,zero,8001cc8 <isHit+0xb4>
 8001c9c:	e0bffd17 	ldw	r2,-12(fp)
 8001ca0:	10800817 	ldw	r2,32(r2)
 8001ca4:	10c00017 	ldw	r3,0(r2)
 8001ca8:	e0bffd17 	ldw	r2,-12(fp)
 8001cac:	10800917 	ldw	r2,36(r2)
 8001cb0:	18800526 	beq	r3,r2,8001cc8 <isHit+0xb4>
 8001cb4:	e0bffe17 	ldw	r2,-8(fp)
 8001cb8:	10801a17 	ldw	r2,104(r2)
 8001cbc:	0080020e 	bge	zero,r2,8001cc8 <isHit+0xb4>
		return -1;
 8001cc0:	00bfffc4 	movi	r2,-1
 8001cc4:	00001006 	br	8001d08 <isHit+0xf4>
	else if(*(g->suicide_p2) && *(g->suicide_p2) != g->suicide_p2_prev && (p2->missile_bounce) > 0)
 8001cc8:	e0bffd17 	ldw	r2,-12(fp)
 8001ccc:	10800a17 	ldw	r2,40(r2)
 8001cd0:	10800017 	ldw	r2,0(r2)
 8001cd4:	10000b26 	beq	r2,zero,8001d04 <isHit+0xf0>
 8001cd8:	e0bffd17 	ldw	r2,-12(fp)
 8001cdc:	10800a17 	ldw	r2,40(r2)
 8001ce0:	10c00017 	ldw	r3,0(r2)
 8001ce4:	e0bffd17 	ldw	r2,-12(fp)
 8001ce8:	10800b17 	ldw	r2,44(r2)
 8001cec:	18800526 	beq	r3,r2,8001d04 <isHit+0xf0>
 8001cf0:	e0bfff17 	ldw	r2,-4(fp)
 8001cf4:	10801a17 	ldw	r2,104(r2)
 8001cf8:	0080020e 	bge	zero,r2,8001d04 <isHit+0xf0>
		return -2;
 8001cfc:	00bfff84 	movi	r2,-2
 8001d00:	00000106 	br	8001d08 <isHit+0xf4>
	else
		return 0;
 8001d04:	0005883a 	mov	r2,zero
}
 8001d08:	e037883a 	mov	sp,fp
 8001d0c:	df000017 	ldw	fp,0(sp)
 8001d10:	dec00104 	addi	sp,sp,4
 8001d14:	f800283a 	ret

08001d18 <playExplosion>:

void playExplosion(struct Game* g){
 8001d18:	defffc04 	addi	sp,sp,-16
 8001d1c:	df000315 	stw	fp,12(sp)
 8001d20:	df000304 	addi	fp,sp,12
 8001d24:	e13fff15 	stw	r4,-4(fp)
	if (*(g->explosion_enum) == 0){
 8001d28:	e0bfff17 	ldw	r2,-4(fp)
 8001d2c:	10801017 	ldw	r2,64(r2)
 8001d30:	10800017 	ldw	r2,0(r2)
 8001d34:	1000151e 	bne	r2,zero,8001d8c <playExplosion+0x74>
		for(int i = 0; i < 5; i++){
 8001d38:	e03ffd15 	stw	zero,-12(fp)
 8001d3c:	00000f06 	br	8001d7c <playExplosion+0x64>
			*(g->explosion_enum) = i;
 8001d40:	e0bfff17 	ldw	r2,-4(fp)
 8001d44:	10801017 	ldw	r2,64(r2)
 8001d48:	e0fffd17 	ldw	r3,-12(fp)
 8001d4c:	10c00015 	stw	r3,0(r2)
			for(int counter = 0; counter < 30000; counter++);
 8001d50:	e03ffe15 	stw	zero,-8(fp)
 8001d54:	00000306 	br	8001d64 <playExplosion+0x4c>
 8001d58:	e0bffe17 	ldw	r2,-8(fp)
 8001d5c:	10800044 	addi	r2,r2,1
 8001d60:	e0bffe15 	stw	r2,-8(fp)
 8001d64:	e0bffe17 	ldw	r2,-8(fp)
 8001d68:	109d4c10 	cmplti	r2,r2,30000
 8001d6c:	103ffa1e 	bne	r2,zero,8001d58 <__alt_data_end+0xfc001d58>
		return 0;
}

void playExplosion(struct Game* g){
	if (*(g->explosion_enum) == 0){
		for(int i = 0; i < 5; i++){
 8001d70:	e0bffd17 	ldw	r2,-12(fp)
 8001d74:	10800044 	addi	r2,r2,1
 8001d78:	e0bffd15 	stw	r2,-12(fp)
 8001d7c:	e0bffd17 	ldw	r2,-12(fp)
 8001d80:	10800150 	cmplti	r2,r2,5
 8001d84:	103fee1e 	bne	r2,zero,8001d40 <__alt_data_end+0xfc001d40>
 8001d88:	00000106 	br	8001d90 <playExplosion+0x78>
			*(g->explosion_enum) = i;
			for(int counter = 0; counter < 30000; counter++);
		}
	}
	else
		return;
 8001d8c:	0001883a 	nop
}
 8001d90:	e037883a 	mov	sp,fp
 8001d94:	df000017 	ldw	fp,0(sp)
 8001d98:	dec00104 	addi	sp,sp,4
 8001d9c:	f800283a 	ret

08001da0 <reset_player>:

// reset p1's location and p2's missile location
void reset_player(struct player* p1, struct player* p2, int player_idx){
 8001da0:	defffc04 	addi	sp,sp,-16
 8001da4:	df000315 	stw	fp,12(sp)
 8001da8:	df000304 	addi	fp,sp,12
 8001dac:	e13ffd15 	stw	r4,-12(fp)
 8001db0:	e17ffe15 	stw	r5,-8(fp)
 8001db4:	e1bfff15 	stw	r6,-4(fp)
	*(p1->missile_x) = 700;
 8001db8:	e0bffd17 	ldw	r2,-12(fp)
 8001dbc:	10800917 	ldw	r2,36(r2)
 8001dc0:	00c0af04 	movi	r3,700
 8001dc4:	10c00015 	stw	r3,0(r2)
	*(p2->missile_x) = 700;
 8001dc8:	e0bffe17 	ldw	r2,-8(fp)
 8001dcc:	10800917 	ldw	r2,36(r2)
 8001dd0:	00c0af04 	movi	r3,700
 8001dd4:	10c00015 	stw	r3,0(r2)
	*(p1->missile_y) = 700;
 8001dd8:	e0bffd17 	ldw	r2,-12(fp)
 8001ddc:	10800a17 	ldw	r2,40(r2)
 8001de0:	00c0af04 	movi	r3,700
 8001de4:	10c00015 	stw	r3,0(r2)
	*(p2->missile_y) = 700;
 8001de8:	e0bffe17 	ldw	r2,-8(fp)
 8001dec:	10800a17 	ldw	r2,40(r2)
 8001df0:	00c0af04 	movi	r3,700
 8001df4:	10c00015 	stw	r3,0(r2)
	(p1->missile_motion_x) = 700;
 8001df8:	e0bffd17 	ldw	r2,-12(fp)
 8001dfc:	00c0af04 	movi	r3,700
 8001e00:	10c00e15 	stw	r3,56(r2)
	(p2->missile_motion_x) = 700;
 8001e04:	e0bffe17 	ldw	r2,-8(fp)
 8001e08:	00c0af04 	movi	r3,700
 8001e0c:	10c00e15 	stw	r3,56(r2)
	(p1->missile_motion_y) = 700;
 8001e10:	e0bffd17 	ldw	r2,-12(fp)
 8001e14:	00c0af04 	movi	r3,700
 8001e18:	10c00f15 	stw	r3,60(r2)
	(p2->missile_motion_y) = 700;
 8001e1c:	e0bffe17 	ldw	r2,-8(fp)
 8001e20:	00c0af04 	movi	r3,700
 8001e24:	10c00f15 	stw	r3,60(r2)
	if(player_idx == 1){
 8001e28:	e0bfff17 	ldw	r2,-4(fp)
 8001e2c:	10800058 	cmpnei	r2,r2,1
 8001e30:	10001c1e 	bne	r2,zero,8001ea4 <reset_player+0x104>
		*(p1->dir) = 0;
 8001e34:	e0bffd17 	ldw	r2,-12(fp)
 8001e38:	10800617 	ldw	r2,24(r2)
 8001e3c:	10000005 	stb	zero,0(r2)
		if(*(p2->x_loc) > 340)
 8001e40:	e0bffe17 	ldw	r2,-8(fp)
 8001e44:	10800017 	ldw	r2,0(r2)
 8001e48:	10800017 	ldw	r2,0(r2)
 8001e4c:	10805550 	cmplti	r2,r2,341
 8001e50:	1000041e 	bne	r2,zero,8001e64 <reset_player+0xc4>
			p1->respawn_x = PLAYER1_START_X;
 8001e54:	e0bffd17 	ldw	r2,-12(fp)
 8001e58:	00c02444 	movi	r3,145
 8001e5c:	10c01c15 	stw	r3,112(r2)
 8001e60:	00000306 	br	8001e70 <reset_player+0xd0>
		else
			p1->respawn_x = PLAYER2_START_X;
 8001e64:	e0bffd17 	ldw	r2,-12(fp)
 8001e68:	00c076c4 	movi	r3,475
 8001e6c:	10c01c15 	stw	r3,112(r2)
		if(*(p2->y_loc) < 220)
 8001e70:	e0bffe17 	ldw	r2,-8(fp)
 8001e74:	10800117 	ldw	r2,4(r2)
 8001e78:	10800017 	ldw	r2,0(r2)
 8001e7c:	10803708 	cmpgei	r2,r2,220
 8001e80:	1000041e 	bne	r2,zero,8001e94 <reset_player+0xf4>
			p1->respawn_y = PLAYER2_START_Y;
 8001e84:	e0bffd17 	ldw	r2,-12(fp)
 8001e88:	00c04c44 	movi	r3,305
 8001e8c:	10c01d15 	stw	r3,116(r2)
		if((*(p1->y_loc)) < 220)
			p2->respawn_y = PLAYER2_START_Y;
		else
			p2->respawn_y = PLAYER1_START_Y;
	}
}
 8001e90:	00001f06 	br	8001f10 <reset_player+0x170>
		else
			p1->respawn_x = PLAYER2_START_X;
		if(*(p2->y_loc) < 220)
			p1->respawn_y = PLAYER2_START_Y;
		else
			p1->respawn_y = PLAYER1_START_Y;
 8001e94:	e0bffd17 	ldw	r2,-12(fp)
 8001e98:	00c01684 	movi	r3,90
 8001e9c:	10c01d15 	stw	r3,116(r2)
		if((*(p1->y_loc)) < 220)
			p2->respawn_y = PLAYER2_START_Y;
		else
			p2->respawn_y = PLAYER1_START_Y;
	}
}
 8001ea0:	00001b06 	br	8001f10 <reset_player+0x170>
			p1->respawn_y = PLAYER2_START_Y;
		else
			p1->respawn_y = PLAYER1_START_Y;
	}
	else{
		*(p2->dir) = 0;
 8001ea4:	e0bffe17 	ldw	r2,-8(fp)
 8001ea8:	10800617 	ldw	r2,24(r2)
 8001eac:	10000005 	stb	zero,0(r2)
		if((*(p1->x_loc)) > 340)
 8001eb0:	e0bffd17 	ldw	r2,-12(fp)
 8001eb4:	10800017 	ldw	r2,0(r2)
 8001eb8:	10800017 	ldw	r2,0(r2)
 8001ebc:	10805550 	cmplti	r2,r2,341
 8001ec0:	1000041e 	bne	r2,zero,8001ed4 <reset_player+0x134>
			p2->respawn_x = PLAYER1_START_X;
 8001ec4:	e0bffe17 	ldw	r2,-8(fp)
 8001ec8:	00c02444 	movi	r3,145
 8001ecc:	10c01c15 	stw	r3,112(r2)
 8001ed0:	00000306 	br	8001ee0 <reset_player+0x140>
		else
			p2->respawn_x = PLAYER2_START_X;
 8001ed4:	e0bffe17 	ldw	r2,-8(fp)
 8001ed8:	00c076c4 	movi	r3,475
 8001edc:	10c01c15 	stw	r3,112(r2)
		if((*(p1->y_loc)) < 220)
 8001ee0:	e0bffd17 	ldw	r2,-12(fp)
 8001ee4:	10800117 	ldw	r2,4(r2)
 8001ee8:	10800017 	ldw	r2,0(r2)
 8001eec:	10803708 	cmpgei	r2,r2,220
 8001ef0:	1000041e 	bne	r2,zero,8001f04 <reset_player+0x164>
			p2->respawn_y = PLAYER2_START_Y;
 8001ef4:	e0bffe17 	ldw	r2,-8(fp)
 8001ef8:	00c04c44 	movi	r3,305
 8001efc:	10c01d15 	stw	r3,116(r2)
		else
			p2->respawn_y = PLAYER1_START_Y;
	}
}
 8001f00:	00000306 	br	8001f10 <reset_player+0x170>
		else
			p2->respawn_x = PLAYER2_START_X;
		if((*(p1->y_loc)) < 220)
			p2->respawn_y = PLAYER2_START_Y;
		else
			p2->respawn_y = PLAYER1_START_Y;
 8001f04:	e0bffe17 	ldw	r2,-8(fp)
 8001f08:	00c01684 	movi	r3,90
 8001f0c:	10c01d15 	stw	r3,116(r2)
	}
}
 8001f10:	0001883a 	nop
 8001f14:	e037883a 	mov	sp,fp
 8001f18:	df000017 	ldw	fp,0(sp)
 8001f1c:	dec00104 	addi	sp,sp,4
 8001f20:	f800283a 	ret

08001f24 <main>:
// game state enum
enum game_state {HALT, INGAME, PLAYER1_SCORES, PLAYER1_SUICIDE, PLAYER2_SCORES, PLAYER2_SUICIDE , PLAYER1_WINS, PLAYER2_WINS};

int main() {
 8001f24:	def9d504 	addi	sp,sp,-6316
 8001f28:	dfc62a15 	stw	ra,6312(sp)
 8001f2c:	df062915 	stw	fp,6308(sp)
 8001f30:	dc062815 	stw	r16,6304(sp)
 8001f34:	df062904 	addi	fp,sp,6308
	srand(0xECE385);
 8001f38:	01003b74 	movhi	r4,237
 8001f3c:	2138e144 	addi	r4,r4,-7291
 8001f40:	800a6840 	call	800a684 <srand>
	BYTE rcode;
	BOOT_MOUSE_REPORT buf;		//USB mouse report
	BOOT_KBD_REPORT kbdbuf;

	BYTE runningdebugflag = 0;//flag to dump out a bunch of information when we first get to USB_STATE_RUNNING
 8001f44:	e039db05 	stb	zero,-6292(fp)
	BYTE errorflag = 0; //flag once we get an error device so we don't keep dumping out state info
 8001f48:	e039db45 	stb	zero,-6291(fp)
	//WORD keycode;

	// initialize sin and cos array
	double _sin[359];
	double _cos[359];
	for(int i = 0; i < 360; i++){
 8001f4c:	e039dc15 	stw	zero,-6288(fp)
 8001f50:	00004d06 	br	8002088 <main+0x164>
		_sin[i] = sin(i*M_PI/180);
 8001f54:	e139dc17 	ldw	r4,-6288(fp)
 8001f58:	800a4040 	call	800a404 <__floatsidf>
 8001f5c:	1011883a 	mov	r8,r2
 8001f60:	1813883a 	mov	r9,r3
 8001f64:	01951134 	movhi	r6,21572
 8001f68:	318b4604 	addi	r6,r6,11544
 8001f6c:	01d00274 	movhi	r7,16393
 8001f70:	39c87ec4 	addi	r7,r7,8699
 8001f74:	4009883a 	mov	r4,r8
 8001f78:	480b883a 	mov	r5,r9
 8001f7c:	800921c0 	call	800921c <__muldf3>
 8001f80:	1009883a 	mov	r4,r2
 8001f84:	180b883a 	mov	r5,r3
 8001f88:	2005883a 	mov	r2,r4
 8001f8c:	2807883a 	mov	r3,r5
 8001f90:	000d883a 	mov	r6,zero
 8001f94:	01d019f4 	movhi	r7,16487
 8001f98:	39e00004 	addi	r7,r7,-32768
 8001f9c:	1009883a 	mov	r4,r2
 8001fa0:	180b883a 	mov	r5,r3
 8001fa4:	80086e80 	call	80086e8 <__divdf3>
 8001fa8:	1009883a 	mov	r4,r2
 8001fac:	180b883a 	mov	r5,r3
 8001fb0:	2005883a 	mov	r2,r4
 8001fb4:	2807883a 	mov	r3,r5
 8001fb8:	1009883a 	mov	r4,r2
 8001fbc:	180b883a 	mov	r5,r3
 8001fc0:	8005b580 	call	8005b58 <sin>
 8001fc4:	1009883a 	mov	r4,r2
 8001fc8:	180b883a 	mov	r5,r3
 8001fcc:	e0b9dc17 	ldw	r2,-6288(fp)
 8001fd0:	100490fa 	slli	r2,r2,3
 8001fd4:	e0f9db04 	addi	r3,fp,-6292
 8001fd8:	1885883a 	add	r2,r3,r2
 8001fdc:	10801b04 	addi	r2,r2,108
 8001fe0:	11000015 	stw	r4,0(r2)
 8001fe4:	11400115 	stw	r5,4(r2)
		_cos[i] = cos(i*M_PI/180);
 8001fe8:	e139dc17 	ldw	r4,-6288(fp)
 8001fec:	800a4040 	call	800a404 <__floatsidf>
 8001ff0:	1011883a 	mov	r8,r2
 8001ff4:	1813883a 	mov	r9,r3
 8001ff8:	01951134 	movhi	r6,21572
 8001ffc:	318b4604 	addi	r6,r6,11544
 8002000:	01d00274 	movhi	r7,16393
 8002004:	39c87ec4 	addi	r7,r7,8699
 8002008:	4009883a 	mov	r4,r8
 800200c:	480b883a 	mov	r5,r9
 8002010:	800921c0 	call	800921c <__muldf3>
 8002014:	1009883a 	mov	r4,r2
 8002018:	180b883a 	mov	r5,r3
 800201c:	2005883a 	mov	r2,r4
 8002020:	2807883a 	mov	r3,r5
 8002024:	000d883a 	mov	r6,zero
 8002028:	01d019f4 	movhi	r7,16487
 800202c:	39e00004 	addi	r7,r7,-32768
 8002030:	1009883a 	mov	r4,r2
 8002034:	180b883a 	mov	r5,r3
 8002038:	80086e80 	call	80086e8 <__divdf3>
 800203c:	1009883a 	mov	r4,r2
 8002040:	180b883a 	mov	r5,r3
 8002044:	2005883a 	mov	r2,r4
 8002048:	2807883a 	mov	r3,r5
 800204c:	1009883a 	mov	r4,r2
 8002050:	180b883a 	mov	r5,r3
 8002054:	8005a580 	call	8005a58 <cos>
 8002058:	1009883a 	mov	r4,r2
 800205c:	180b883a 	mov	r5,r3
 8002060:	e0b9dc17 	ldw	r2,-6288(fp)
 8002064:	100490fa 	slli	r2,r2,3
 8002068:	e0f9db04 	addi	r3,fp,-6292
 800206c:	1885883a 	add	r2,r3,r2
 8002070:	1082e904 	addi	r2,r2,2980
 8002074:	11000015 	stw	r4,0(r2)
 8002078:	11400115 	stw	r5,4(r2)
	//WORD keycode;

	// initialize sin and cos array
	double _sin[359];
	double _cos[359];
	for(int i = 0; i < 360; i++){
 800207c:	e0b9dc17 	ldw	r2,-6288(fp)
 8002080:	10800044 	addi	r2,r2,1
 8002084:	e0b9dc15 	stw	r2,-6288(fp)
 8002088:	e0b9dc17 	ldw	r2,-6288(fp)
 800208c:	10805a10 	cmplti	r2,r2,360
 8002090:	103fb01e 	bne	r2,zero,8001f54 <__alt_data_end+0xfc001f54>

	// possible spawn spots
//	int SPAWN_X[2] = {145, 475};
//	int SPAWN_Y[2] = {90, 305};

	int P1colors[8] = {0xF60202, 0xFF0000, 0xFFfF00, 0xFFFF00, 0x00FF00, 0x0000FF, 0x00ffff, 0xff00ff};
 8002094:	00803db4 	movhi	r2,246
 8002098:	10808084 	addi	r2,r2,514
 800209c:	e0bf9215 	stw	r2,-440(fp)
 80020a0:	00803ff4 	movhi	r2,255
 80020a4:	e0bf9315 	stw	r2,-436(fp)
 80020a8:	00804034 	movhi	r2,256
 80020ac:	10bfc004 	addi	r2,r2,-256
 80020b0:	e0bf9415 	stw	r2,-432(fp)
 80020b4:	00804034 	movhi	r2,256
 80020b8:	10bfc004 	addi	r2,r2,-256
 80020bc:	e0bf9515 	stw	r2,-428(fp)
 80020c0:	00bfc014 	movui	r2,65280
 80020c4:	e0bf9615 	stw	r2,-424(fp)
 80020c8:	00803fc4 	movi	r2,255
 80020cc:	e0bf9715 	stw	r2,-420(fp)
 80020d0:	00bfffd4 	movui	r2,65535
 80020d4:	e0bf9815 	stw	r2,-416(fp)
 80020d8:	00803ff4 	movhi	r2,255
 80020dc:	10803fc4 	addi	r2,r2,255
 80020e0:	e0bf9915 	stw	r2,-412(fp)
	int P2colors[8] = {0x81147E, 0xFF0000, 0xFFfF00, 0xFFFF00, 0x00FF00, 0x0000FF, 0x00ffff, 0xff00ff};
 80020e4:	00802074 	movhi	r2,129
 80020e8:	10851f84 	addi	r2,r2,5246
 80020ec:	e0bf9a15 	stw	r2,-408(fp)
 80020f0:	00803ff4 	movhi	r2,255
 80020f4:	e0bf9b15 	stw	r2,-404(fp)
 80020f8:	00804034 	movhi	r2,256
 80020fc:	10bfc004 	addi	r2,r2,-256
 8002100:	e0bf9c15 	stw	r2,-400(fp)
 8002104:	00804034 	movhi	r2,256
 8002108:	10bfc004 	addi	r2,r2,-256
 800210c:	e0bf9d15 	stw	r2,-396(fp)
 8002110:	00bfc014 	movui	r2,65280
 8002114:	e0bf9e15 	stw	r2,-392(fp)
 8002118:	00803fc4 	movi	r2,255
 800211c:	e0bf9f15 	stw	r2,-388(fp)
 8002120:	00bfffd4 	movui	r2,65535
 8002124:	e0bfa015 	stw	r2,-384(fp)
 8002128:	00803ff4 	movhi	r2,255
 800212c:	10803fc4 	addi	r2,r2,255
 8002130:	e0bfa115 	stw	r2,-380(fp)

	//initialize game struct
	struct Game game;
	game.ui_anim_enum = MARINE_ENUM_BASE; *(game.ui_anim_enum) = 0;
 8002134:	00814404 	movi	r2,1296
 8002138:	e0bfa215 	stw	r2,-376(fp)
 800213c:	e0bfa217 	ldw	r2,-376(fp)
 8002140:	10000015 	stw	zero,0(r2)
	game.score_p1 = SCOREP1_BASE; *(game.score_p1) = 0x30;
 8002144:	00811004 	movi	r2,1088
 8002148:	e0bfa415 	stw	r2,-368(fp)
 800214c:	e0bfa417 	ldw	r2,-368(fp)
 8002150:	00c00c04 	movi	r3,48
 8002154:	10c00015 	stw	r3,0(r2)
	game.score_p2 = SCOREP2_BASE; *(game.score_p2) = 0x30;
 8002158:	00811404 	movi	r2,1104
 800215c:	e0bfa515 	stw	r2,-364(fp)
 8002160:	e0bfa517 	ldw	r2,-364(fp)
 8002164:	00c00c04 	movi	r3,48
 8002168:	10c00015 	stw	r3,0(r2)
	game.hit_p1 = P1_HIT_BASE; game.hit_p1_prev = *(game.hit_p1);
 800216c:	00810804 	movi	r2,1056
 8002170:	e0bfa615 	stw	r2,-360(fp)
 8002174:	e0bfa617 	ldw	r2,-360(fp)
 8002178:	10800017 	ldw	r2,0(r2)
 800217c:	e0bfa715 	stw	r2,-356(fp)
	game.hit_p2 = P2_HIT_BASE; game.hit_p1_prev = *(game.hit_p2);
 8002180:	00810c04 	movi	r2,1072
 8002184:	e0bfa815 	stw	r2,-352(fp)
 8002188:	e0bfa817 	ldw	r2,-352(fp)
 800218c:	10800017 	ldw	r2,0(r2)
 8002190:	e0bfa715 	stw	r2,-356(fp)
	game.suicide_p1 = P1_SUICIDE_BASE; game.suicide_p1_prev = *(game.suicide_p1);
 8002194:	0080f004 	movi	r2,960
 8002198:	e0bfaa15 	stw	r2,-344(fp)
 800219c:	e0bfaa17 	ldw	r2,-344(fp)
 80021a0:	10800017 	ldw	r2,0(r2)
 80021a4:	e0bfab15 	stw	r2,-340(fp)
	game.suicide_p2 = P2_SUICIDE_BASE; game.suicide_p2_prev = *(game.suicide_p1);
 80021a8:	0080ec04 	movi	r2,944
 80021ac:	e0bfac15 	stw	r2,-336(fp)
 80021b0:	e0bfaa17 	ldw	r2,-344(fp)
 80021b4:	10800017 	ldw	r2,0(r2)
 80021b8:	e0bfad15 	stw	r2,-332(fp)
	game.curr_game_state = HALT;
 80021bc:	e03fae15 	stw	zero,-328(fp)
	game.explosion_enum = EXPLOSION_ENUM_BASE; *(game.explosion_enum) = 1;
 80021c0:	0080fc04 	movi	r2,1008
 80021c4:	e0bfb215 	stw	r2,-312(fp)
 80021c8:	e0bfb217 	ldw	r2,-312(fp)
 80021cc:	00c00044 	movi	r3,1
 80021d0:	10c00015 	stw	r3,0(r2)
	game.explosion_x = EXPLOSION_X_BASE; *(game.explosion_x) = OUT_OF_SCREEN;
 80021d4:	0080f404 	movi	r2,976
 80021d8:	e0bfb015 	stw	r2,-320(fp)
 80021dc:	e0bfb017 	ldw	r2,-320(fp)
 80021e0:	00c0af04 	movi	r3,700
 80021e4:	10c00015 	stw	r3,0(r2)
	game.explosion_y = EXPLOSION_Y_BASE; *(game.explosion_y) = OUT_OF_SCREEN;
 80021e8:	0080f804 	movi	r2,992
 80021ec:	e0bfb115 	stw	r2,-316(fp)
 80021f0:	e0bfb117 	ldw	r2,-316(fp)
 80021f4:	00c0af04 	movi	r3,700
 80021f8:	10c00015 	stw	r3,0(r2)
	game.sin = _sin;
 80021fc:	e0b9f604 	addi	r2,fp,-6184
 8002200:	e0bfb515 	stw	r2,-300(fp)
	game.cos = _cos;
 8002204:	e0bcc404 	addi	r2,fp,-3312
 8002208:	e0bfb615 	stw	r2,-296(fp)
	game.splash_x = SPLASHSCREEN_X_BASE; *(game.splash_x) = SPLASH_X;
 800220c:	0080dc04 	movi	r2,880
 8002210:	e0bfb315 	stw	r2,-308(fp)
 8002214:	e0bfb317 	ldw	r2,-308(fp)
 8002218:	00c03044 	movi	r3,193
 800221c:	10c00015 	stw	r3,0(r2)
	game.splash_y = SPLASHSCREEN_Y_BASE; *(game.splash_y) = SPLASH_Y;
 8002220:	0080e004 	movi	r2,896
 8002224:	e0bfb415 	stw	r2,-304(fp)
 8002228:	e0bfb417 	ldw	r2,-304(fp)
 800222c:	00c03484 	movi	r3,210
 8002230:	10c00015 	stw	r3,0(r2)

	struct Game* gptr = &game;
 8002234:	e0bfa204 	addi	r2,fp,-376
 8002238:	e0b9ea15 	stw	r2,-6232(fp)

	// Initialize player 1 struct
	struct player player1;
	player1.respawn_x = PLAYER1_START_X;
 800223c:	00802444 	movi	r2,145
 8002240:	e0bfd315 	stw	r2,-180(fp)
	player1.respawn_y = PLAYER1_START_Y;
 8002244:	00801684 	movi	r2,90
 8002248:	e0bfd415 	stw	r2,-176(fp)
	player1.x_loc = PLAYER1X_BASE; *(player1.x_loc) = player1.respawn_x;
 800224c:	00814004 	movi	r2,1280
 8002250:	e0bfb715 	stw	r2,-292(fp)
 8002254:	e0bfb717 	ldw	r2,-292(fp)
 8002258:	e0ffd317 	ldw	r3,-180(fp)
 800225c:	10c00015 	stw	r3,0(r2)
	player1.y_loc = PLAYER1Y_BASE; *(player1.y_loc) = player1.respawn_y;
 8002260:	00813c04 	movi	r2,1264
 8002264:	e0bfb815 	stw	r2,-288(fp)
 8002268:	e0bfb817 	ldw	r2,-288(fp)
 800226c:	e0ffd417 	ldw	r3,-176(fp)
 8002270:	10c00015 	stw	r3,0(r2)
	player1.x_loc_prev = *(player1.x_loc);
 8002274:	e0bfb717 	ldw	r2,-292(fp)
 8002278:	10800017 	ldw	r2,0(r2)
 800227c:	e0bfb915 	stw	r2,-284(fp)
	player1.y_loc_prev = *(player1.y_loc);
 8002280:	e0bfb817 	ldw	r2,-288(fp)
 8002284:	10800017 	ldw	r2,0(r2)
 8002288:	e0bfba15 	stw	r2,-280(fp)
	player1.motion_x = 0; player1.motion_y = 0;
 800228c:	e03fbb15 	stw	zero,-276(fp)
 8002290:	e03fbc15 	stw	zero,-272(fp)
	player1.dir = SPRITE_ENUM_BASE; *(player1.dir) = 0;
 8002294:	00816004 	movi	r2,1408
 8002298:	e0bfbd15 	stw	r2,-268(fp)
 800229c:	e0bfbd17 	ldw	r2,-268(fp)
 80022a0:	10000005 	stb	zero,0(r2)
	player1.dir_prev = *(player1.dir);
 80022a4:	e0bfbd17 	ldw	r2,-268(fp)
 80022a8:	10800003 	ldbu	r2,0(r2)
 80022ac:	e0bfbe05 	stb	r2,-264(fp)
	player1.anim_enum = NULL;
 80022b0:	e03fbf15 	stw	zero,-260(fp)
	player1.missile_x = MISSILE1_X_BASE; *(player1.missile_x) = OUT_OF_SCREEN; player1.missile_x_prev = OUT_OF_SCREEN;
 80022b4:	00812404 	movi	r2,1168
 80022b8:	e0bfc015 	stw	r2,-256(fp)
 80022bc:	e0bfc017 	ldw	r2,-256(fp)
 80022c0:	00c0af04 	movi	r3,700
 80022c4:	10c00015 	stw	r3,0(r2)
 80022c8:	0080af04 	movi	r2,700
 80022cc:	e0bfc215 	stw	r2,-248(fp)
	player1.missile_y = MISSILE1_Y_BASE; *(player1.missile_y) = OUT_OF_SCREEN; player1.missile_y_prev = OUT_OF_SCREEN;
 80022d0:	00812004 	movi	r2,1152
 80022d4:	e0bfc115 	stw	r2,-252(fp)
 80022d8:	e0bfc117 	ldw	r2,-252(fp)
 80022dc:	00c0af04 	movi	r3,700
 80022e0:	10c00015 	stw	r3,0(r2)
 80022e4:	0080af04 	movi	r2,700
 80022e8:	e0bfc315 	stw	r2,-244(fp)
	player1.missile_motion_x = 0;
 80022ec:	e03fc515 	stw	zero,-236(fp)
	player1.missile_motion_y = 0;
 80022f0:	e03fc615 	stw	zero,-232(fp)
	player1.collision = COLLISIONP1_BASE;
 80022f4:	00813804 	movi	r2,1248
 80022f8:	e0bfc915 	stw	r2,-220(fp)
	player1.collision_prev = *(player1.collision);
 80022fc:	e0bfc917 	ldw	r2,-220(fp)
 8002300:	10800017 	ldw	r2,0(r2)
 8002304:	e0bfca15 	stw	r2,-216(fp)
	player1.missile_collision = COLLISION_MS1_BASE;
 8002308:	00810004 	movi	r2,1024
 800230c:	e0bfcb15 	stw	r2,-212(fp)
	player1.missile_collision_prev = *(player1.missile_collision);
 8002310:	e0bfcb17 	ldw	r2,-212(fp)
 8002314:	10800017 	ldw	r2,0(r2)
 8002318:	e0bfcc15 	stw	r2,-208(fp)
	player1.left = 0;
 800231c:	e03fcd15 	stw	zero,-204(fp)
	player1.left_prev = 0;
 8002320:	e03fce15 	stw	zero,-200(fp)
	player1.right = 0;
 8002324:	e03fcf15 	stw	zero,-196(fp)
	player1.left_prev = 0;
 8002328:	e03fce15 	stw	zero,-200(fp)
	player1.missile_state = 0;
 800232c:	e03fc415 	stw	zero,-240(fp)
	player1.missile_bounce = 0;
 8002330:	e03fd115 	stw	zero,-188(fp)
	player1.accent = P1_ACCENT_BASE; *(player1.accent) = 0xF60202;
 8002334:	0080e804 	movi	r2,928
 8002338:	e0bfd215 	stw	r2,-184(fp)
 800233c:	e0ffd217 	ldw	r3,-184(fp)
 8002340:	00803db4 	movhi	r2,246
 8002344:	10808084 	addi	r2,r2,514
 8002348:	18800015 	stw	r2,0(r3)

	struct player* p1ptr = &player1;
 800234c:	e0bfb704 	addi	r2,fp,-292
 8002350:	e0b9eb15 	stw	r2,-6228(fp)

	// initialize player 2 struct
	struct player player2;
	player2.respawn_x = PLAYER2_START_X;
 8002354:	008076c4 	movi	r2,475
 8002358:	e0bff115 	stw	r2,-60(fp)
	player2.respawn_y = PLAYER2_START_Y;
 800235c:	00804c44 	movi	r2,305
 8002360:	e0bff215 	stw	r2,-56(fp)
	player2.x_loc = PLAYER2X_BASE; *(player2.x_loc) = player2.respawn_x;
 8002364:	00812804 	movi	r2,1184
 8002368:	e0bfd515 	stw	r2,-172(fp)
 800236c:	e0bfd517 	ldw	r2,-172(fp)
 8002370:	e0fff117 	ldw	r3,-60(fp)
 8002374:	10c00015 	stw	r3,0(r2)
	player2.y_loc = PLAYER2Y_BASE; *(player2.y_loc) = player2.respawn_y;
 8002378:	00812c04 	movi	r2,1200
 800237c:	e0bfd615 	stw	r2,-168(fp)
 8002380:	e0bfd617 	ldw	r2,-168(fp)
 8002384:	e0fff217 	ldw	r3,-56(fp)
 8002388:	10c00015 	stw	r3,0(r2)
	player2.x_loc_prev = *(player2.x_loc);
 800238c:	e0bfd517 	ldw	r2,-172(fp)
 8002390:	10800017 	ldw	r2,0(r2)
 8002394:	e0bfd715 	stw	r2,-164(fp)
	player2.y_loc_prev = *(player2.y_loc);
 8002398:	e0bfd617 	ldw	r2,-168(fp)
 800239c:	10800017 	ldw	r2,0(r2)
 80023a0:	e0bfd815 	stw	r2,-160(fp)
	player2.motion_x = 0;
 80023a4:	e03fd915 	stw	zero,-156(fp)
	player2.motion_y = 0;
 80023a8:	e03fda15 	stw	zero,-152(fp)
	player2.dir = SPRITE_ENUM2_BASE;
 80023ac:	00814804 	movi	r2,1312
 80023b0:	e0bfdb15 	stw	r2,-148(fp)
	player2.dir_prev = *(player2.dir); *(player2.dir) = 0;
 80023b4:	e0bfdb17 	ldw	r2,-148(fp)
 80023b8:	10800003 	ldbu	r2,0(r2)
 80023bc:	e0bfdc05 	stb	r2,-144(fp)
 80023c0:	e0bfdb17 	ldw	r2,-148(fp)
 80023c4:	10000005 	stb	zero,0(r2)
	player2.anim_enum = SPRITE2_ANIMATION_BASE; *(player2.anim_enum) = 0;
 80023c8:	00813404 	movi	r2,1232
 80023cc:	e0bfdd15 	stw	r2,-140(fp)
 80023d0:	e0bfdd17 	ldw	r2,-140(fp)
 80023d4:	10000015 	stw	zero,0(r2)
	player2.missile_x = MISSILE2_X_BASE; *(player2.missile_x) = OUT_OF_SCREEN; player2.missile_x_prev = OUT_OF_SCREEN;
 80023d8:	00811c04 	movi	r2,1136
 80023dc:	e0bfde15 	stw	r2,-136(fp)
 80023e0:	e0bfde17 	ldw	r2,-136(fp)
 80023e4:	00c0af04 	movi	r3,700
 80023e8:	10c00015 	stw	r3,0(r2)
 80023ec:	0080af04 	movi	r2,700
 80023f0:	e0bfe015 	stw	r2,-128(fp)
	player2.missile_y = MISSILE2_Y_BASE; *(player2.missile_y) = OUT_OF_SCREEN; player2.missile_y_prev = OUT_OF_SCREEN;
 80023f4:	00811804 	movi	r2,1120
 80023f8:	e0bfdf15 	stw	r2,-132(fp)
 80023fc:	e0bfdf17 	ldw	r2,-132(fp)
 8002400:	00c0af04 	movi	r3,700
 8002404:	10c00015 	stw	r3,0(r2)
 8002408:	0080af04 	movi	r2,700
 800240c:	e0bfe115 	stw	r2,-124(fp)
	player2.missile_motion_x = 0;
 8002410:	e03fe315 	stw	zero,-116(fp)
	player2.missile_motion_y = 0;
 8002414:	e03fe415 	stw	zero,-112(fp)
	player2.collision = COLLISIONP2_BASE;
 8002418:	00813004 	movi	r2,1216
 800241c:	e0bfe715 	stw	r2,-100(fp)
	player2.collision_prev = *(player2.collision);
 8002420:	e0bfe717 	ldw	r2,-100(fp)
 8002424:	10800017 	ldw	r2,0(r2)
 8002428:	e0bfe815 	stw	r2,-96(fp)
	player2.missile_collision = COLLISION_MS2_BASE;
 800242c:	00810404 	movi	r2,1040
 8002430:	e0bfe915 	stw	r2,-92(fp)
	player2.missile_collision_prev = *(player2.missile_collision);
 8002434:	e0bfe917 	ldw	r2,-92(fp)
 8002438:	10800017 	ldw	r2,0(r2)
 800243c:	e0bfea15 	stw	r2,-88(fp)
	player2.left = 0;
 8002440:	e03feb15 	stw	zero,-84(fp)
	player2.left_prev = 0;
 8002444:	e03fec15 	stw	zero,-80(fp)
	player2.right = 0;
 8002448:	e03fed15 	stw	zero,-76(fp)
	player2.right_prev = 0;
 800244c:	e03fee15 	stw	zero,-72(fp)
	player2.missile_state = 0;
 8002450:	e03fe215 	stw	zero,-120(fp)
	player2.missile_bounce = 0;
 8002454:	e03fef15 	stw	zero,-68(fp)
	player2.accent = P2_ACCENT_BASE; *(player2.accent) = 0x81147E;
 8002458:	0080e404 	movi	r2,912
 800245c:	e0bff015 	stw	r2,-64(fp)
 8002460:	e0fff017 	ldw	r3,-64(fp)
 8002464:	00802074 	movhi	r2,129
 8002468:	10851f84 	addi	r2,r2,5246
 800246c:	18800015 	stw	r2,0(r3)

	struct player* p2ptr = &player2;
 8002470:	e0bfd504 	addi	r2,fp,-172
 8002474:	e0b9ec15 	stw	r2,-6224(fp)

	// initialize counters used within the game
	struct counters p1counter;
	p1counter.motion_counter = 0;
 8002478:	e03ff515 	stw	zero,-44(fp)
	p1counter.state_counter = 0;
 800247c:	e03ff415 	stw	zero,-48(fp)
	p1counter.sprite_anim_counter = 0;
 8002480:	e03ff615 	stw	zero,-40(fp)
	p1counter.ui_anim_counter = 0;
 8002484:	e03ff315 	stw	zero,-52(fp)
	p1counter.missile_motion_counter = 0;
 8002488:	e03ff715 	stw	zero,-36(fp)

	struct counters* p1cntptr = &p1counter;
 800248c:	e0bff304 	addi	r2,fp,-52
 8002490:	e0b9ed15 	stw	r2,-6220(fp)

	struct counters p2counter;
	p2counter.motion_counter = 0;
 8002494:	e03ffb15 	stw	zero,-20(fp)
	p2counter.state_counter = 0;
 8002498:	e03ffa15 	stw	zero,-24(fp)
	p2counter.sprite_anim_counter = 0;
 800249c:	e03ffc15 	stw	zero,-16(fp)
	p2counter.ui_anim_counter = 0;
 80024a0:	e03ff915 	stw	zero,-28(fp)
	p2counter.missile_motion_counter = 0;
 80024a4:	e03ffd15 	stw	zero,-12(fp)

	struct counters* p2cntptr = &p2counter;
 80024a8:	e0bff904 	addi	r2,fp,-28
 80024ac:	e0b9ee15 	stw	r2,-6216(fp)

	int* key = KEY_BASE;
 80024b0:	00816404 	movi	r2,1424
 80024b4:	e0b9ef15 	stw	r2,-6212(fp)
	int key_prev = *key;
 80024b8:	e0b9ef17 	ldw	r2,-6212(fp)
 80024bc:	10800017 	ldw	r2,0(r2)
 80024c0:	e0b9dd15 	stw	r2,-6284(fp)

	printf("HEXDIGIT: %x\n\n", HEX_DIGITS_PIO_BASE);
 80024c4:	01416c04 	movi	r5,1456
 80024c8:	01020074 	movhi	r4,2049
 80024cc:	211e4e04 	addi	r4,r4,31032
 80024d0:	800a5740 	call	800a574 <printf>
	printf("LED: %x\n\n", LEDS_PIO_BASE);
 80024d4:	01416804 	movi	r5,1440
 80024d8:	01020074 	movhi	r4,2049
 80024dc:	211e5204 	addi	r4,r4,31048
 80024e0:	800a5740 	call	800a574 <printf>
	printf("initializing MAX3421E...\n");
 80024e4:	01020074 	movhi	r4,2049
 80024e8:	211e5504 	addi	r4,r4,31060
 80024ec:	800a6700 	call	800a670 <puts>
	MAX3421E_init();
 80024f0:	800445c0 	call	800445c <MAX3421E_init>
	printf("initializing USB...\n");
 80024f4:	01020074 	movhi	r4,2049
 80024f8:	211e5c04 	addi	r4,r4,31088
 80024fc:	800a6700 	call	800a670 <puts>
	printf("Testing read function....\n");
 8002500:	01020074 	movhi	r4,2049
 8002504:	211e6104 	addi	r4,r4,31108
 8002508:	800a6700 	call	800a670 <puts>
	int ret_val = MAXreg_rd(rREVISION);
 800250c:	01002404 	movi	r4,144
 8002510:	80041040 	call	8004104 <MAXreg_rd>
 8002514:	10803fcc 	andi	r2,r2,255
 8002518:	e0b9f015 	stw	r2,-6208(fp)
	printf("output: %x", ret_val);
 800251c:	e179f017 	ldw	r5,-6208(fp)
 8002520:	01020074 	movhi	r4,2049
 8002524:	211e6804 	addi	r4,r4,31136
 8002528:	800a5740 	call	800a574 <printf>
	USB_init();
 800252c:	8004bec0 	call	8004bec <USB_init>
	while (1) {
		//printf(".");
		setKeycode(kbdbuf.keycode[0]);
 8002530:	e0b9f3c3 	ldbu	r2,-6193(fp)
 8002534:	10803fcc 	andi	r2,r2,255
 8002538:	1009883a 	mov	r4,r2
 800253c:	80007380 	call	8000738 <setKeycode>
		printSignedHex0(kbdbuf.keycode[0]);
 8002540:	e0b9f3c3 	ldbu	r2,-6193(fp)
 8002544:	10803fcc 	andi	r2,r2,255
 8002548:	1080201c 	xori	r2,r2,128
 800254c:	10bfe004 	addi	r2,r2,-128
 8002550:	1009883a 	mov	r4,r2
 8002554:	80004e80 	call	80004e8 <printSignedHex0>
		printSignedHex1(kbdbuf.keycode[1]);
 8002558:	e0b9f403 	ldbu	r2,-6192(fp)
 800255c:	10803fcc 	andi	r2,r2,255
 8002560:	1080201c 	xori	r2,r2,128
 8002564:	10bfe004 	addi	r2,r2,-128
 8002568:	1009883a 	mov	r4,r2
 800256c:	80006000 	call	8000600 <printSignedHex1>
		if(game.curr_game_state == HALT){
 8002570:	e0bfae17 	ldw	r2,-328(fp)
 8002574:	10006e1e 	bne	r2,zero,8002730 <main+0x80c>
			*(game.splash_x) = SPLASH_X;
 8002578:	e0bfb317 	ldw	r2,-308(fp)
 800257c:	00c03044 	movi	r3,193
 8002580:	10c00015 	stw	r3,0(r2)
			*(game.splash_y) = SPLASH_Y;
 8002584:	e0bfb417 	ldw	r2,-304(fp)
 8002588:	00c03484 	movi	r3,210
 800258c:	10c00015 	stw	r3,0(r2)
			setLoc(p1ptr, OUT_OF_SCREEN, OUT_OF_SCREEN);
 8002590:	0180af04 	movi	r6,700
 8002594:	0140af04 	movi	r5,700
 8002598:	e139eb17 	ldw	r4,-6228(fp)
 800259c:	8001b7c0 	call	8001b7c <setLoc>
			setLoc(p2ptr, OUT_OF_SCREEN, OUT_OF_SCREEN);
 80025a0:	0180af04 	movi	r6,700
 80025a4:	0140af04 	movi	r5,700
 80025a8:	e139ec17 	ldw	r4,-6224(fp)
 80025ac:	8001b7c0 	call	8001b7c <setLoc>
			// Reset values
			*(player1.missile_x) = 700;
 80025b0:	e0bfc017 	ldw	r2,-256(fp)
 80025b4:	00c0af04 	movi	r3,700
 80025b8:	10c00015 	stw	r3,0(r2)
			*(player2.missile_x) = 700;
 80025bc:	e0bfde17 	ldw	r2,-136(fp)
 80025c0:	00c0af04 	movi	r3,700
 80025c4:	10c00015 	stw	r3,0(r2)
			*(player1.missile_y) = 700;
 80025c8:	e0bfc117 	ldw	r2,-252(fp)
 80025cc:	00c0af04 	movi	r3,700
 80025d0:	10c00015 	stw	r3,0(r2)
			*(player2.missile_y) = 700;
 80025d4:	e0bfdf17 	ldw	r2,-132(fp)
 80025d8:	00c0af04 	movi	r3,700
 80025dc:	10c00015 	stw	r3,0(r2)
			(player1.missile_motion_x) = 700;
 80025e0:	0080af04 	movi	r2,700
 80025e4:	e0bfc515 	stw	r2,-236(fp)
			(player2.missile_motion_x) = 700;
 80025e8:	0080af04 	movi	r2,700
 80025ec:	e0bfe315 	stw	r2,-116(fp)
			(player1.missile_motion_y) = 700;
 80025f0:	0080af04 	movi	r2,700
 80025f4:	e0bfc615 	stw	r2,-232(fp)
			(player2.missile_motion_y) = 700;
 80025f8:	0080af04 	movi	r2,700
 80025fc:	e0bfe415 	stw	r2,-112(fp)
			*(player2.dir) = 0;
 8002600:	e0bfdb17 	ldw	r2,-148(fp)
 8002604:	10000005 	stb	zero,0(r2)
			*(player1.dir) = 0;
 8002608:	e0bfbd17 	ldw	r2,-268(fp)
 800260c:	10000005 	stb	zero,0(r2)
			updateScore(gptr, 0x56, 0x53);
 8002610:	018014c4 	movi	r6,83
 8002614:	01401584 	movi	r5,86
 8002618:	e139ea17 	ldw	r4,-6232(fp)
 800261c:	8001bc80 	call	8001bc8 <updateScore>
			if(*key == 1 && key_prev != 1){
 8002620:	e0b9ef17 	ldw	r2,-6212(fp)
 8002624:	10800017 	ldw	r2,0(r2)
 8002628:	10800058 	cmpnei	r2,r2,1
 800262c:	1003231e 	bne	r2,zero,80032bc <main+0x1398>
 8002630:	e0b9dd17 	ldw	r2,-6284(fp)
 8002634:	10800060 	cmpeqi	r2,r2,1
 8002638:	1003201e 	bne	r2,zero,80032bc <main+0x1398>
				*(game.splash_x) = OUT_OF_SCREEN;
 800263c:	e0bfb317 	ldw	r2,-308(fp)
 8002640:	00c0af04 	movi	r3,700
 8002644:	10c00015 	stw	r3,0(r2)
				*(game.splash_y) = OUT_OF_SCREEN;
 8002648:	e0bfb417 	ldw	r2,-304(fp)
 800264c:	00c0af04 	movi	r3,700
 8002650:	10c00015 	stw	r3,0(r2)
				game.curr_game_state = INGAME;
 8002654:	00800044 	movi	r2,1
 8002658:	e0bfae15 	stw	r2,-328(fp)
				updateScore(gptr, 0x30, 0x30);
 800265c:	01800c04 	movi	r6,48
 8002660:	01400c04 	movi	r5,48
 8002664:	e139ea17 	ldw	r4,-6232(fp)
 8002668:	8001bc80 	call	8001bc8 <updateScore>
				//set accent colors of characters
				*(player1.accent) = P1colors[rand()%8];
 800266c:	e43fd217 	ldw	r16,-184(fp)
 8002670:	800a69c0 	call	800a69c <rand>
 8002674:	1007883a 	mov	r3,r2
 8002678:	00a00034 	movhi	r2,32768
 800267c:	108001c4 	addi	r2,r2,7
 8002680:	1884703a 	and	r2,r3,r2
 8002684:	1000040e 	bge	r2,zero,8002698 <main+0x774>
 8002688:	10bfffc4 	addi	r2,r2,-1
 800268c:	00fffe04 	movi	r3,-8
 8002690:	10c4b03a 	or	r2,r2,r3
 8002694:	10800044 	addi	r2,r2,1
 8002698:	1085883a 	add	r2,r2,r2
 800269c:	1085883a 	add	r2,r2,r2
 80026a0:	e0f9db04 	addi	r3,fp,-6292
 80026a4:	1885883a 	add	r2,r3,r2
 80026a8:	1085b704 	addi	r2,r2,5852
 80026ac:	10800017 	ldw	r2,0(r2)
 80026b0:	80800015 	stw	r2,0(r16)
				*(player2.accent) = P2colors[rand()%8];
 80026b4:	e43ff017 	ldw	r16,-64(fp)
 80026b8:	800a69c0 	call	800a69c <rand>
 80026bc:	1007883a 	mov	r3,r2
 80026c0:	00a00034 	movhi	r2,32768
 80026c4:	108001c4 	addi	r2,r2,7
 80026c8:	1884703a 	and	r2,r3,r2
 80026cc:	1000040e 	bge	r2,zero,80026e0 <main+0x7bc>
 80026d0:	10bfffc4 	addi	r2,r2,-1
 80026d4:	00fffe04 	movi	r3,-8
 80026d8:	10c4b03a 	or	r2,r2,r3
 80026dc:	10800044 	addi	r2,r2,1
 80026e0:	1085883a 	add	r2,r2,r2
 80026e4:	1085883a 	add	r2,r2,r2
 80026e8:	e0f9db04 	addi	r3,fp,-6292
 80026ec:	1885883a 	add	r2,r3,r2
 80026f0:	1085bf04 	addi	r2,r2,5884
 80026f4:	10800017 	ldw	r2,0(r2)
 80026f8:	80800015 	stw	r2,0(r16)
				setLoc(p1ptr, player1.respawn_x, player1.respawn_y);
 80026fc:	e0bfd317 	ldw	r2,-180(fp)
 8002700:	e0ffd417 	ldw	r3,-176(fp)
 8002704:	180d883a 	mov	r6,r3
 8002708:	100b883a 	mov	r5,r2
 800270c:	e139eb17 	ldw	r4,-6228(fp)
 8002710:	8001b7c0 	call	8001b7c <setLoc>
				setLoc(p2ptr, player2.respawn_x, player2.respawn_y);
 8002714:	e0bff117 	ldw	r2,-60(fp)
 8002718:	e0fff217 	ldw	r3,-56(fp)
 800271c:	180d883a 	mov	r6,r3
 8002720:	100b883a 	mov	r5,r2
 8002724:	e139ec17 	ldw	r4,-6224(fp)
 8002728:	8001b7c0 	call	8001b7c <setLoc>
 800272c:	0002e306 	br	80032bc <main+0x1398>
			}
		}
		else if(game.curr_game_state == INGAME){
 8002730:	e0bfae17 	ldw	r2,-328(fp)
 8002734:	10800058 	cmpnei	r2,r2,1
 8002738:	1000c71e 	bne	r2,zero,8002a58 <main+0xb34>
			// player 1 movement logic
			update_player(kbdbuf, p1ptr, p1cntptr, 04, 07, 26, 22);
 800273c:	00800584 	movi	r2,22
 8002740:	d8800315 	stw	r2,12(sp)
 8002744:	00800684 	movi	r2,26
 8002748:	d8800215 	stw	r2,8(sp)
 800274c:	008001c4 	movi	r2,7
 8002750:	d8800115 	stw	r2,4(sp)
 8002754:	00800104 	movi	r2,4
 8002758:	d8800015 	stw	r2,0(sp)
 800275c:	e0b9f343 	ldbu	r2,-6195(fp)
 8002760:	e0f9f383 	ldbu	r3,-6194(fp)
 8002764:	1806923a 	slli	r3,r3,8
 8002768:	1884b03a 	or	r2,r3,r2
 800276c:	e0f9f3c3 	ldbu	r3,-6193(fp)
 8002770:	1806943a 	slli	r3,r3,16
 8002774:	1884b03a 	or	r2,r3,r2
 8002778:	e0f9f403 	ldbu	r3,-6192(fp)
 800277c:	1806963a 	slli	r3,r3,24
 8002780:	1884b03a 	or	r2,r3,r2
 8002784:	0009883a 	mov	r4,zero
 8002788:	1009883a 	mov	r4,r2
 800278c:	e0b9f443 	ldbu	r2,-6191(fp)
 8002790:	e0f9f483 	ldbu	r3,-6190(fp)
 8002794:	1806923a 	slli	r3,r3,8
 8002798:	1884b03a 	or	r2,r3,r2
 800279c:	e0f9f4c3 	ldbu	r3,-6189(fp)
 80027a0:	1806943a 	slli	r3,r3,16
 80027a4:	1884b03a 	or	r2,r3,r2
 80027a8:	e0f9f503 	ldbu	r3,-6188(fp)
 80027ac:	1806963a 	slli	r3,r3,24
 80027b0:	1884b03a 	or	r2,r3,r2
 80027b4:	0007883a 	mov	r3,zero
 80027b8:	1007883a 	mov	r3,r2
 80027bc:	e1f9ed17 	ldw	r7,-6220(fp)
 80027c0:	e1b9eb17 	ldw	r6,-6228(fp)
 80027c4:	180b883a 	mov	r5,r3
 80027c8:	80016080 	call	8001608 <update_player>
			missileStatehandler(p1ptr);
 80027cc:	e139eb17 	ldw	r4,-6228(fp)
 80027d0:	8001a6c0 	call	8001a6c <missileStatehandler>
			update_missile(kbdbuf, p1ptr, p1cntptr, 44, gptr);
 80027d4:	e0b9ea17 	ldw	r2,-6232(fp)
 80027d8:	d8800115 	stw	r2,4(sp)
 80027dc:	00800b04 	movi	r2,44
 80027e0:	d8800015 	stw	r2,0(sp)
 80027e4:	e0b9f343 	ldbu	r2,-6195(fp)
 80027e8:	e0f9f383 	ldbu	r3,-6194(fp)
 80027ec:	1806923a 	slli	r3,r3,8
 80027f0:	1884b03a 	or	r2,r3,r2
 80027f4:	e0f9f3c3 	ldbu	r3,-6193(fp)
 80027f8:	1806943a 	slli	r3,r3,16
 80027fc:	1884b03a 	or	r2,r3,r2
 8002800:	e0f9f403 	ldbu	r3,-6192(fp)
 8002804:	1806963a 	slli	r3,r3,24
 8002808:	1884b03a 	or	r2,r3,r2
 800280c:	0009883a 	mov	r4,zero
 8002810:	1009883a 	mov	r4,r2
 8002814:	e0b9f443 	ldbu	r2,-6191(fp)
 8002818:	e0f9f483 	ldbu	r3,-6190(fp)
 800281c:	1806923a 	slli	r3,r3,8
 8002820:	1884b03a 	or	r2,r3,r2
 8002824:	e0f9f4c3 	ldbu	r3,-6189(fp)
 8002828:	1806943a 	slli	r3,r3,16
 800282c:	1884b03a 	or	r2,r3,r2
 8002830:	e0f9f503 	ldbu	r3,-6188(fp)
 8002834:	1806963a 	slli	r3,r3,24
 8002838:	1884b03a 	or	r2,r3,r2
 800283c:	0007883a 	mov	r3,zero
 8002840:	1007883a 	mov	r3,r2
 8002844:	e1f9ed17 	ldw	r7,-6220(fp)
 8002848:	e1b9eb17 	ldw	r6,-6228(fp)
 800284c:	180b883a 	mov	r5,r3
 8002850:	8000a8c0 	call	8000a8c <update_missile>

			// player 2 movement logic
			update_player(kbdbuf, p2ptr, p2cntptr, 80, 79, 82, 81);
 8002854:	00801444 	movi	r2,81
 8002858:	d8800315 	stw	r2,12(sp)
 800285c:	00801484 	movi	r2,82
 8002860:	d8800215 	stw	r2,8(sp)
 8002864:	008013c4 	movi	r2,79
 8002868:	d8800115 	stw	r2,4(sp)
 800286c:	00801404 	movi	r2,80
 8002870:	d8800015 	stw	r2,0(sp)
 8002874:	e0b9f343 	ldbu	r2,-6195(fp)
 8002878:	e0f9f383 	ldbu	r3,-6194(fp)
 800287c:	1806923a 	slli	r3,r3,8
 8002880:	1884b03a 	or	r2,r3,r2
 8002884:	e0f9f3c3 	ldbu	r3,-6193(fp)
 8002888:	1806943a 	slli	r3,r3,16
 800288c:	1884b03a 	or	r2,r3,r2
 8002890:	e0f9f403 	ldbu	r3,-6192(fp)
 8002894:	1806963a 	slli	r3,r3,24
 8002898:	1884b03a 	or	r2,r3,r2
 800289c:	0009883a 	mov	r4,zero
 80028a0:	1009883a 	mov	r4,r2
 80028a4:	e0b9f443 	ldbu	r2,-6191(fp)
 80028a8:	e0f9f483 	ldbu	r3,-6190(fp)
 80028ac:	1806923a 	slli	r3,r3,8
 80028b0:	1884b03a 	or	r2,r3,r2
 80028b4:	e0f9f4c3 	ldbu	r3,-6189(fp)
 80028b8:	1806943a 	slli	r3,r3,16
 80028bc:	1884b03a 	or	r2,r3,r2
 80028c0:	e0f9f503 	ldbu	r3,-6188(fp)
 80028c4:	1806963a 	slli	r3,r3,24
 80028c8:	1884b03a 	or	r2,r3,r2
 80028cc:	0007883a 	mov	r3,zero
 80028d0:	1007883a 	mov	r3,r2
 80028d4:	e1f9ee17 	ldw	r7,-6216(fp)
 80028d8:	e1b9ec17 	ldw	r6,-6224(fp)
 80028dc:	180b883a 	mov	r5,r3
 80028e0:	80016080 	call	8001608 <update_player>
			missileStatehandler(p2ptr);
 80028e4:	e139ec17 	ldw	r4,-6224(fp)
 80028e8:	8001a6c0 	call	8001a6c <missileStatehandler>
			update_missile(kbdbuf, p2ptr, p2cntptr, 56, gptr);
 80028ec:	e0b9ea17 	ldw	r2,-6232(fp)
 80028f0:	d8800115 	stw	r2,4(sp)
 80028f4:	00800e04 	movi	r2,56
 80028f8:	d8800015 	stw	r2,0(sp)
 80028fc:	e0b9f343 	ldbu	r2,-6195(fp)
 8002900:	e0f9f383 	ldbu	r3,-6194(fp)
 8002904:	1806923a 	slli	r3,r3,8
 8002908:	1884b03a 	or	r2,r3,r2
 800290c:	e0f9f3c3 	ldbu	r3,-6193(fp)
 8002910:	1806943a 	slli	r3,r3,16
 8002914:	1884b03a 	or	r2,r3,r2
 8002918:	e0f9f403 	ldbu	r3,-6192(fp)
 800291c:	1806963a 	slli	r3,r3,24
 8002920:	1884b03a 	or	r2,r3,r2
 8002924:	0009883a 	mov	r4,zero
 8002928:	1009883a 	mov	r4,r2
 800292c:	e0b9f443 	ldbu	r2,-6191(fp)
 8002930:	e0f9f483 	ldbu	r3,-6190(fp)
 8002934:	1806923a 	slli	r3,r3,8
 8002938:	1884b03a 	or	r2,r3,r2
 800293c:	e0f9f4c3 	ldbu	r3,-6189(fp)
 8002940:	1806943a 	slli	r3,r3,16
 8002944:	1884b03a 	or	r2,r3,r2
 8002948:	e0f9f503 	ldbu	r3,-6188(fp)
 800294c:	1806963a 	slli	r3,r3,24
 8002950:	1884b03a 	or	r2,r3,r2
 8002954:	0007883a 	mov	r3,zero
 8002958:	1007883a 	mov	r3,r2
 800295c:	e1f9ee17 	ldw	r7,-6216(fp)
 8002960:	e1b9ec17 	ldw	r6,-6224(fp)
 8002964:	180b883a 	mov	r5,r3
 8002968:	8000a8c0 	call	8000a8c <update_missile>

			// update ui animation
			update_ui_anim(gptr, p1cntptr);
 800296c:	e179ed17 	ldw	r5,-6220(fp)
 8002970:	e139ea17 	ldw	r4,-6232(fp)
 8002974:	8001ad80 	call	8001ad8 <update_ui_anim>

			// detect hits
			if (isHit(gptr, p1ptr, p2ptr) == 1){
 8002978:	e1b9ec17 	ldw	r6,-6224(fp)
 800297c:	e179eb17 	ldw	r5,-6228(fp)
 8002980:	e139ea17 	ldw	r4,-6232(fp)
 8002984:	8001c140 	call	8001c14 <isHit>
 8002988:	10800058 	cmpnei	r2,r2,1
 800298c:	1000051e 	bne	r2,zero,80029a4 <main+0xa80>
				*(game.explosion_enum) = 0;
 8002990:	e0bfb217 	ldw	r2,-312(fp)
 8002994:	10000015 	stw	zero,0(r2)
				game.curr_game_state = PLAYER2_SCORES;
 8002998:	00800104 	movi	r2,4
 800299c:	e0bfae15 	stw	r2,-328(fp)
 80029a0:	00002006 	br	8002a24 <main+0xb00>
			}
			else if(isHit(gptr, p1ptr, p2ptr) == 2){
 80029a4:	e1b9ec17 	ldw	r6,-6224(fp)
 80029a8:	e179eb17 	ldw	r5,-6228(fp)
 80029ac:	e139ea17 	ldw	r4,-6232(fp)
 80029b0:	8001c140 	call	8001c14 <isHit>
 80029b4:	10800098 	cmpnei	r2,r2,2
 80029b8:	1000051e 	bne	r2,zero,80029d0 <main+0xaac>
				*(game.explosion_enum) = 0;
 80029bc:	e0bfb217 	ldw	r2,-312(fp)
 80029c0:	10000015 	stw	zero,0(r2)
				game.curr_game_state = PLAYER1_SCORES;
 80029c4:	00800084 	movi	r2,2
 80029c8:	e0bfae15 	stw	r2,-328(fp)
 80029cc:	00001506 	br	8002a24 <main+0xb00>
			}
			else if(isHit(gptr, p1ptr, p2ptr) == -1){
 80029d0:	e1b9ec17 	ldw	r6,-6224(fp)
 80029d4:	e179eb17 	ldw	r5,-6228(fp)
 80029d8:	e139ea17 	ldw	r4,-6232(fp)
 80029dc:	8001c140 	call	8001c14 <isHit>
 80029e0:	10bfffd8 	cmpnei	r2,r2,-1
 80029e4:	1000051e 	bne	r2,zero,80029fc <main+0xad8>
				*(game.explosion_enum) = 0;
 80029e8:	e0bfb217 	ldw	r2,-312(fp)
 80029ec:	10000015 	stw	zero,0(r2)
				game.curr_game_state = PLAYER1_SUICIDE;
 80029f0:	008000c4 	movi	r2,3
 80029f4:	e0bfae15 	stw	r2,-328(fp)
 80029f8:	00000a06 	br	8002a24 <main+0xb00>
			}
			else if(isHit(gptr, p1ptr, p2ptr) == -2){
 80029fc:	e1b9ec17 	ldw	r6,-6224(fp)
 8002a00:	e179eb17 	ldw	r5,-6228(fp)
 8002a04:	e139ea17 	ldw	r4,-6232(fp)
 8002a08:	8001c140 	call	8001c14 <isHit>
 8002a0c:	10bfff98 	cmpnei	r2,r2,-2
 8002a10:	1000041e 	bne	r2,zero,8002a24 <main+0xb00>
				*(game.explosion_enum) = 0;
 8002a14:	e0bfb217 	ldw	r2,-312(fp)
 8002a18:	10000015 	stw	zero,0(r2)
				game.curr_game_state = PLAYER2_SUICIDE;
 8002a1c:	00800144 	movi	r2,5
 8002a20:	e0bfae15 	stw	r2,-328(fp)
			}
			game.hit_p1_prev = *(game.hit_p1);
 8002a24:	e0bfa617 	ldw	r2,-360(fp)
 8002a28:	10800017 	ldw	r2,0(r2)
 8002a2c:	e0bfa715 	stw	r2,-356(fp)
			game.hit_p2_prev = *(game.hit_p2);
 8002a30:	e0bfa817 	ldw	r2,-352(fp)
 8002a34:	10800017 	ldw	r2,0(r2)
 8002a38:	e0bfa915 	stw	r2,-348(fp)
			game.suicide_p1_prev = *(game.suicide_p1);
 8002a3c:	e0bfaa17 	ldw	r2,-344(fp)
 8002a40:	10800017 	ldw	r2,0(r2)
 8002a44:	e0bfab15 	stw	r2,-340(fp)
			game.suicide_p2_prev = *(game.suicide_p2);
 8002a48:	e0bfac17 	ldw	r2,-336(fp)
 8002a4c:	10800017 	ldw	r2,0(r2)
 8002a50:	e0bfad15 	stw	r2,-332(fp)
 8002a54:	00021906 	br	80032bc <main+0x1398>
		}
		else if(game.curr_game_state == PLAYER1_SCORES){
 8002a58:	e0bfae17 	ldw	r2,-328(fp)
 8002a5c:	10800098 	cmpnei	r2,r2,2
 8002a60:	10006d1e 	bne	r2,zero,8002c18 <main+0xcf4>
			*(game.explosion_x) = *(player2.x_loc);
 8002a64:	e0bfb017 	ldw	r2,-320(fp)
 8002a68:	e0ffd517 	ldw	r3,-172(fp)
 8002a6c:	18c00017 	ldw	r3,0(r3)
 8002a70:	10c00015 	stw	r3,0(r2)
			*(game.explosion_y) = *(player2.y_loc) + 4;
 8002a74:	e0bfb117 	ldw	r2,-316(fp)
 8002a78:	e0ffd617 	ldw	r3,-168(fp)
 8002a7c:	18c00017 	ldw	r3,0(r3)
 8002a80:	18c00104 	addi	r3,r3,4
 8002a84:	10c00015 	stw	r3,0(r2)
			*(player2.x_loc) = OUT_OF_SCREEN;
 8002a88:	e0bfd517 	ldw	r2,-172(fp)
 8002a8c:	00c0af04 	movi	r3,700
 8002a90:	10c00015 	stw	r3,0(r2)
			*(player2.y_loc) = OUT_OF_SCREEN;
 8002a94:	e0bfd617 	ldw	r2,-168(fp)
 8002a98:	00c0af04 	movi	r3,700
 8002a9c:	10c00015 	stw	r3,0(r2)
			*(player2.missile_x) = OUT_OF_SCREEN;
 8002aa0:	e0bfde17 	ldw	r2,-136(fp)
 8002aa4:	00c0af04 	movi	r3,700
 8002aa8:	10c00015 	stw	r3,0(r2)
			*(player2.missile_y) = OUT_OF_SCREEN;
 8002aac:	e0bfdf17 	ldw	r2,-132(fp)
 8002ab0:	00c0af04 	movi	r3,700
 8002ab4:	10c00015 	stw	r3,0(r2)
			*(player1.missile_x) = OUT_OF_SCREEN;
 8002ab8:	e0bfc017 	ldw	r2,-256(fp)
 8002abc:	00c0af04 	movi	r3,700
 8002ac0:	10c00015 	stw	r3,0(r2)
			*(player1.missile_y) = OUT_OF_SCREEN;
 8002ac4:	e0bfc117 	ldw	r2,-252(fp)
 8002ac8:	00c0af04 	movi	r3,700
 8002acc:	10c00015 	stw	r3,0(r2)
			playExplosion(gptr);
 8002ad0:	e139ea17 	ldw	r4,-6232(fp)
 8002ad4:	8001d180 	call	8001d18 <playExplosion>
			if(*(game.score_p1)+ 1 + (int)(player1.missile_bounce > 0) >= 0x3a){
 8002ad8:	e0bfa417 	ldw	r2,-368(fp)
 8002adc:	10800017 	ldw	r2,0(r2)
 8002ae0:	10c00044 	addi	r3,r2,1
 8002ae4:	e0bfd117 	ldw	r2,-188(fp)
 8002ae8:	0084803a 	cmplt	r2,zero,r2
 8002aec:	10803fcc 	andi	r2,r2,255
 8002af0:	1885883a 	add	r2,r3,r2
 8002af4:	10800e90 	cmplti	r2,r2,58
 8002af8:	1000071e 	bne	r2,zero,8002b18 <main+0xbf4>
				updateScore(gptr, 0x57, 0x4c);
 8002afc:	01801304 	movi	r6,76
 8002b00:	014015c4 	movi	r5,87
 8002b04:	e139ea17 	ldw	r4,-6232(fp)
 8002b08:	8001bc80 	call	8001bc8 <updateScore>
				game.next_game_state = PLAYER1_WINS;
 8002b0c:	00800184 	movi	r2,6
 8002b10:	e0bfaf15 	stw	r2,-324(fp)
 8002b14:	00000f06 	br	8002b54 <main+0xc30>
			}
			else{
				updateScore(gptr, *(game.score_p1) + 1 + (int)(player1.missile_bounce > 0), *(game.score_p2));
 8002b18:	e0bfa417 	ldw	r2,-368(fp)
 8002b1c:	10800017 	ldw	r2,0(r2)
 8002b20:	10c00044 	addi	r3,r2,1
 8002b24:	e0bfd117 	ldw	r2,-188(fp)
 8002b28:	0084803a 	cmplt	r2,zero,r2
 8002b2c:	10803fcc 	andi	r2,r2,255
 8002b30:	1887883a 	add	r3,r3,r2
 8002b34:	e0bfa517 	ldw	r2,-364(fp)
 8002b38:	10800017 	ldw	r2,0(r2)
 8002b3c:	100d883a 	mov	r6,r2
 8002b40:	180b883a 	mov	r5,r3
 8002b44:	e139ea17 	ldw	r4,-6232(fp)
 8002b48:	8001bc80 	call	8001bc8 <updateScore>
				game.next_game_state = INGAME;
 8002b4c:	00800044 	movi	r2,1
 8002b50:	e0bfaf15 	stw	r2,-324(fp)
			}
			//while(*key != 1 || key_prev == 1);
			reset_player(p1ptr, p2ptr, 2);
 8002b54:	01800084 	movi	r6,2
 8002b58:	e179ec17 	ldw	r5,-6224(fp)
 8002b5c:	e139eb17 	ldw	r4,-6228(fp)
 8002b60:	8001da00 	call	8001da0 <reset_player>
			for(int i = 0; i < 5; i++){
 8002b64:	e039de15 	stw	zero,-6280(fp)
 8002b68:	00001f06 	br	8002be8 <main+0xcc4>
				*(player2.x_loc) = OUT_OF_SCREEN;
 8002b6c:	e0bfd517 	ldw	r2,-172(fp)
 8002b70:	00c0af04 	movi	r3,700
 8002b74:	10c00015 	stw	r3,0(r2)
				*(player2.y_loc) = OUT_OF_SCREEN;
 8002b78:	e0bfd617 	ldw	r2,-168(fp)
 8002b7c:	00c0af04 	movi	r3,700
 8002b80:	10c00015 	stw	r3,0(r2)
				for(int j = 0; j < 40000; j++);
 8002b84:	e039df15 	stw	zero,-6276(fp)
 8002b88:	00000306 	br	8002b98 <main+0xc74>
 8002b8c:	e0b9df17 	ldw	r2,-6276(fp)
 8002b90:	10800044 	addi	r2,r2,1
 8002b94:	e0b9df15 	stw	r2,-6276(fp)
 8002b98:	e0b9df17 	ldw	r2,-6276(fp)
 8002b9c:	00e70fd4 	movui	r3,39999
 8002ba0:	18bffa0e 	bge	r3,r2,8002b8c <__alt_data_end+0xfc002b8c>
				*(player2.x_loc) = player2.respawn_x;
 8002ba4:	e0bfd517 	ldw	r2,-172(fp)
 8002ba8:	e0fff117 	ldw	r3,-60(fp)
 8002bac:	10c00015 	stw	r3,0(r2)
				*(player2.y_loc) = player2.respawn_y;
 8002bb0:	e0bfd617 	ldw	r2,-168(fp)
 8002bb4:	e0fff217 	ldw	r3,-56(fp)
 8002bb8:	10c00015 	stw	r3,0(r2)
				for(int j = 0; j < 40000; j++);
 8002bbc:	e039e015 	stw	zero,-6272(fp)
 8002bc0:	00000306 	br	8002bd0 <main+0xcac>
 8002bc4:	e0b9e017 	ldw	r2,-6272(fp)
 8002bc8:	10800044 	addi	r2,r2,1
 8002bcc:	e0b9e015 	stw	r2,-6272(fp)
 8002bd0:	e0b9e017 	ldw	r2,-6272(fp)
 8002bd4:	00e70fd4 	movui	r3,39999
 8002bd8:	18bffa0e 	bge	r3,r2,8002bc4 <__alt_data_end+0xfc002bc4>
				updateScore(gptr, *(game.score_p1) + 1 + (int)(player1.missile_bounce > 0), *(game.score_p2));
				game.next_game_state = INGAME;
			}
			//while(*key != 1 || key_prev == 1);
			reset_player(p1ptr, p2ptr, 2);
			for(int i = 0; i < 5; i++){
 8002bdc:	e0b9de17 	ldw	r2,-6280(fp)
 8002be0:	10800044 	addi	r2,r2,1
 8002be4:	e0b9de15 	stw	r2,-6280(fp)
 8002be8:	e0b9de17 	ldw	r2,-6280(fp)
 8002bec:	10800150 	cmplti	r2,r2,5
 8002bf0:	103fde1e 	bne	r2,zero,8002b6c <__alt_data_end+0xfc002b6c>
				for(int j = 0; j < 40000; j++);
				*(player2.x_loc) = player2.respawn_x;
				*(player2.y_loc) = player2.respawn_y;
				for(int j = 0; j < 40000; j++);
			}
			*(game.explosion_x) = OUT_OF_SCREEN;
 8002bf4:	e0bfb017 	ldw	r2,-320(fp)
 8002bf8:	00c0af04 	movi	r3,700
 8002bfc:	10c00015 	stw	r3,0(r2)
			*(game.explosion_y) = OUT_OF_SCREEN;
 8002c00:	e0bfb117 	ldw	r2,-316(fp)
 8002c04:	00c0af04 	movi	r3,700
 8002c08:	10c00015 	stw	r3,0(r2)
			game.curr_game_state = game.next_game_state;
 8002c0c:	e0bfaf17 	ldw	r2,-324(fp)
 8002c10:	e0bfae15 	stw	r2,-328(fp)
 8002c14:	0001a906 	br	80032bc <main+0x1398>
		}
		else if(game.curr_game_state == PLAYER2_SUICIDE){
 8002c18:	e0bfae17 	ldw	r2,-328(fp)
 8002c1c:	10800158 	cmpnei	r2,r2,5
 8002c20:	1000611e 	bne	r2,zero,8002da8 <main+0xe84>
			*(game.explosion_x) = *(player2.x_loc);
 8002c24:	e0bfb017 	ldw	r2,-320(fp)
 8002c28:	e0ffd517 	ldw	r3,-172(fp)
 8002c2c:	18c00017 	ldw	r3,0(r3)
 8002c30:	10c00015 	stw	r3,0(r2)
			*(game.explosion_y) = *(player2.y_loc) + 4;
 8002c34:	e0bfb117 	ldw	r2,-316(fp)
 8002c38:	e0ffd617 	ldw	r3,-168(fp)
 8002c3c:	18c00017 	ldw	r3,0(r3)
 8002c40:	18c00104 	addi	r3,r3,4
 8002c44:	10c00015 	stw	r3,0(r2)
			*(player2.x_loc) = OUT_OF_SCREEN;
 8002c48:	e0bfd517 	ldw	r2,-172(fp)
 8002c4c:	00c0af04 	movi	r3,700
 8002c50:	10c00015 	stw	r3,0(r2)
			*(player2.y_loc) = OUT_OF_SCREEN;
 8002c54:	e0bfd617 	ldw	r2,-168(fp)
 8002c58:	00c0af04 	movi	r3,700
 8002c5c:	10c00015 	stw	r3,0(r2)
			*(player2.missile_x) = OUT_OF_SCREEN;
 8002c60:	e0bfde17 	ldw	r2,-136(fp)
 8002c64:	00c0af04 	movi	r3,700
 8002c68:	10c00015 	stw	r3,0(r2)
			*(player2.missile_y) = OUT_OF_SCREEN;
 8002c6c:	e0bfdf17 	ldw	r2,-132(fp)
 8002c70:	00c0af04 	movi	r3,700
 8002c74:	10c00015 	stw	r3,0(r2)
			playExplosion(gptr);
 8002c78:	e139ea17 	ldw	r4,-6232(fp)
 8002c7c:	8001d180 	call	8001d18 <playExplosion>
			if(*(game.score_p2)-1 <= 0x30){
 8002c80:	e0bfa517 	ldw	r2,-364(fp)
 8002c84:	10800017 	ldw	r2,0(r2)
 8002c88:	10bfffc4 	addi	r2,r2,-1
 8002c8c:	10800c48 	cmpgei	r2,r2,49
 8002c90:	1000091e 	bne	r2,zero,8002cb8 <main+0xd94>
				updateScore(gptr, *(game.score_p1), 0x30);
 8002c94:	e0bfa417 	ldw	r2,-368(fp)
 8002c98:	10800017 	ldw	r2,0(r2)
 8002c9c:	01800c04 	movi	r6,48
 8002ca0:	100b883a 	mov	r5,r2
 8002ca4:	e139ea17 	ldw	r4,-6232(fp)
 8002ca8:	8001bc80 	call	8001bc8 <updateScore>
				game.next_game_state = INGAME;
 8002cac:	00800044 	movi	r2,1
 8002cb0:	e0bfaf15 	stw	r2,-324(fp)
 8002cb4:	00000b06 	br	8002ce4 <main+0xdc0>
			}
			else{
				updateScore(gptr, *(game.score_p1), *(game.score_p2)-1);
 8002cb8:	e0bfa417 	ldw	r2,-368(fp)
 8002cbc:	10c00017 	ldw	r3,0(r2)
 8002cc0:	e0bfa517 	ldw	r2,-364(fp)
 8002cc4:	10800017 	ldw	r2,0(r2)
 8002cc8:	10bfffc4 	addi	r2,r2,-1
 8002ccc:	100d883a 	mov	r6,r2
 8002cd0:	180b883a 	mov	r5,r3
 8002cd4:	e139ea17 	ldw	r4,-6232(fp)
 8002cd8:	8001bc80 	call	8001bc8 <updateScore>
				game.next_game_state = INGAME;
 8002cdc:	00800044 	movi	r2,1
 8002ce0:	e0bfaf15 	stw	r2,-324(fp)
			}
			reset_player(p1ptr, p2ptr, 2);
 8002ce4:	01800084 	movi	r6,2
 8002ce8:	e179ec17 	ldw	r5,-6224(fp)
 8002cec:	e139eb17 	ldw	r4,-6228(fp)
 8002cf0:	8001da00 	call	8001da0 <reset_player>
			for(int i = 0; i < 5; i++){
 8002cf4:	e039e115 	stw	zero,-6268(fp)
 8002cf8:	00001f06 	br	8002d78 <main+0xe54>
				*(player2.x_loc) = OUT_OF_SCREEN;
 8002cfc:	e0bfd517 	ldw	r2,-172(fp)
 8002d00:	00c0af04 	movi	r3,700
 8002d04:	10c00015 	stw	r3,0(r2)
				*(player2.y_loc) = OUT_OF_SCREEN;
 8002d08:	e0bfd617 	ldw	r2,-168(fp)
 8002d0c:	00c0af04 	movi	r3,700
 8002d10:	10c00015 	stw	r3,0(r2)
				for(int j = 0; j < 40000; j++);
 8002d14:	e039e215 	stw	zero,-6264(fp)
 8002d18:	00000306 	br	8002d28 <main+0xe04>
 8002d1c:	e0b9e217 	ldw	r2,-6264(fp)
 8002d20:	10800044 	addi	r2,r2,1
 8002d24:	e0b9e215 	stw	r2,-6264(fp)
 8002d28:	e0b9e217 	ldw	r2,-6264(fp)
 8002d2c:	00e70fd4 	movui	r3,39999
 8002d30:	18bffa0e 	bge	r3,r2,8002d1c <__alt_data_end+0xfc002d1c>
				*(player2.x_loc) =  player2.respawn_x;
 8002d34:	e0bfd517 	ldw	r2,-172(fp)
 8002d38:	e0fff117 	ldw	r3,-60(fp)
 8002d3c:	10c00015 	stw	r3,0(r2)
				*(player2.y_loc) =  player2.respawn_y;
 8002d40:	e0bfd617 	ldw	r2,-168(fp)
 8002d44:	e0fff217 	ldw	r3,-56(fp)
 8002d48:	10c00015 	stw	r3,0(r2)
				for(int j = 0; j < 40000; j++);
 8002d4c:	e039e315 	stw	zero,-6260(fp)
 8002d50:	00000306 	br	8002d60 <main+0xe3c>
 8002d54:	e0b9e317 	ldw	r2,-6260(fp)
 8002d58:	10800044 	addi	r2,r2,1
 8002d5c:	e0b9e315 	stw	r2,-6260(fp)
 8002d60:	e0b9e317 	ldw	r2,-6260(fp)
 8002d64:	00e70fd4 	movui	r3,39999
 8002d68:	18bffa0e 	bge	r3,r2,8002d54 <__alt_data_end+0xfc002d54>
			else{
				updateScore(gptr, *(game.score_p1), *(game.score_p2)-1);
				game.next_game_state = INGAME;
			}
			reset_player(p1ptr, p2ptr, 2);
			for(int i = 0; i < 5; i++){
 8002d6c:	e0b9e117 	ldw	r2,-6268(fp)
 8002d70:	10800044 	addi	r2,r2,1
 8002d74:	e0b9e115 	stw	r2,-6268(fp)
 8002d78:	e0b9e117 	ldw	r2,-6268(fp)
 8002d7c:	10800150 	cmplti	r2,r2,5
 8002d80:	103fde1e 	bne	r2,zero,8002cfc <__alt_data_end+0xfc002cfc>
				for(int j = 0; j < 40000; j++);
				*(player2.x_loc) =  player2.respawn_x;
				*(player2.y_loc) =  player2.respawn_y;
				for(int j = 0; j < 40000; j++);
			}
			*(game.explosion_x) = OUT_OF_SCREEN;
 8002d84:	e0bfb017 	ldw	r2,-320(fp)
 8002d88:	00c0af04 	movi	r3,700
 8002d8c:	10c00015 	stw	r3,0(r2)
			*(game.explosion_y) = OUT_OF_SCREEN;
 8002d90:	e0bfb117 	ldw	r2,-316(fp)
 8002d94:	00c0af04 	movi	r3,700
 8002d98:	10c00015 	stw	r3,0(r2)
			game.curr_game_state = game.next_game_state;
 8002d9c:	e0bfaf17 	ldw	r2,-324(fp)
 8002da0:	e0bfae15 	stw	r2,-328(fp)
 8002da4:	00014506 	br	80032bc <main+0x1398>
		}
		else if(game.curr_game_state == PLAYER1_SUICIDE){
 8002da8:	e0bfae17 	ldw	r2,-328(fp)
 8002dac:	108000d8 	cmpnei	r2,r2,3
 8002db0:	1000611e 	bne	r2,zero,8002f38 <main+0x1014>
			*(game.explosion_x) = *(player1.x_loc);
 8002db4:	e0bfb017 	ldw	r2,-320(fp)
 8002db8:	e0ffb717 	ldw	r3,-292(fp)
 8002dbc:	18c00017 	ldw	r3,0(r3)
 8002dc0:	10c00015 	stw	r3,0(r2)
			*(game.explosion_y) = *(player1.y_loc) + 4;
 8002dc4:	e0bfb117 	ldw	r2,-316(fp)
 8002dc8:	e0ffb817 	ldw	r3,-288(fp)
 8002dcc:	18c00017 	ldw	r3,0(r3)
 8002dd0:	18c00104 	addi	r3,r3,4
 8002dd4:	10c00015 	stw	r3,0(r2)
			*(player1.x_loc) = OUT_OF_SCREEN;
 8002dd8:	e0bfb717 	ldw	r2,-292(fp)
 8002ddc:	00c0af04 	movi	r3,700
 8002de0:	10c00015 	stw	r3,0(r2)
			*(player1.y_loc) = OUT_OF_SCREEN;
 8002de4:	e0bfb817 	ldw	r2,-288(fp)
 8002de8:	00c0af04 	movi	r3,700
 8002dec:	10c00015 	stw	r3,0(r2)
			*(player1.missile_x) = OUT_OF_SCREEN;
 8002df0:	e0bfc017 	ldw	r2,-256(fp)
 8002df4:	00c0af04 	movi	r3,700
 8002df8:	10c00015 	stw	r3,0(r2)
			*(player1.missile_y) = OUT_OF_SCREEN;
 8002dfc:	e0bfc117 	ldw	r2,-252(fp)
 8002e00:	00c0af04 	movi	r3,700
 8002e04:	10c00015 	stw	r3,0(r2)
			playExplosion(gptr);
 8002e08:	e139ea17 	ldw	r4,-6232(fp)
 8002e0c:	8001d180 	call	8001d18 <playExplosion>
			if(*(game.score_p1)-1 <= 0x30){
 8002e10:	e0bfa417 	ldw	r2,-368(fp)
 8002e14:	10800017 	ldw	r2,0(r2)
 8002e18:	10bfffc4 	addi	r2,r2,-1
 8002e1c:	10800c48 	cmpgei	r2,r2,49
 8002e20:	1000091e 	bne	r2,zero,8002e48 <main+0xf24>
				updateScore(gptr, 0x30, *(game.score_p2));
 8002e24:	e0bfa517 	ldw	r2,-364(fp)
 8002e28:	10800017 	ldw	r2,0(r2)
 8002e2c:	100d883a 	mov	r6,r2
 8002e30:	01400c04 	movi	r5,48
 8002e34:	e139ea17 	ldw	r4,-6232(fp)
 8002e38:	8001bc80 	call	8001bc8 <updateScore>
				game.next_game_state = INGAME;
 8002e3c:	00800044 	movi	r2,1
 8002e40:	e0bfaf15 	stw	r2,-324(fp)
 8002e44:	00000b06 	br	8002e74 <main+0xf50>
			}
			else{
				updateScore(gptr, *(game.score_p1) - 1, *(game.score_p2));
 8002e48:	e0bfa417 	ldw	r2,-368(fp)
 8002e4c:	10800017 	ldw	r2,0(r2)
 8002e50:	10ffffc4 	addi	r3,r2,-1
 8002e54:	e0bfa517 	ldw	r2,-364(fp)
 8002e58:	10800017 	ldw	r2,0(r2)
 8002e5c:	100d883a 	mov	r6,r2
 8002e60:	180b883a 	mov	r5,r3
 8002e64:	e139ea17 	ldw	r4,-6232(fp)
 8002e68:	8001bc80 	call	8001bc8 <updateScore>
				game.next_game_state = INGAME;
 8002e6c:	00800044 	movi	r2,1
 8002e70:	e0bfaf15 	stw	r2,-324(fp)
			}
			reset_player(p1ptr, p2ptr, 1);
 8002e74:	01800044 	movi	r6,1
 8002e78:	e179ec17 	ldw	r5,-6224(fp)
 8002e7c:	e139eb17 	ldw	r4,-6228(fp)
 8002e80:	8001da00 	call	8001da0 <reset_player>
			for(int i = 0; i < 5; i++){
 8002e84:	e039e415 	stw	zero,-6256(fp)
 8002e88:	00001f06 	br	8002f08 <main+0xfe4>
				*(player1.x_loc) = OUT_OF_SCREEN;
 8002e8c:	e0bfb717 	ldw	r2,-292(fp)
 8002e90:	00c0af04 	movi	r3,700
 8002e94:	10c00015 	stw	r3,0(r2)
				*(player1.y_loc) = OUT_OF_SCREEN;
 8002e98:	e0bfb817 	ldw	r2,-288(fp)
 8002e9c:	00c0af04 	movi	r3,700
 8002ea0:	10c00015 	stw	r3,0(r2)
				for(int j = 0; j < 40000; j++);
 8002ea4:	e039e515 	stw	zero,-6252(fp)
 8002ea8:	00000306 	br	8002eb8 <main+0xf94>
 8002eac:	e0b9e517 	ldw	r2,-6252(fp)
 8002eb0:	10800044 	addi	r2,r2,1
 8002eb4:	e0b9e515 	stw	r2,-6252(fp)
 8002eb8:	e0b9e517 	ldw	r2,-6252(fp)
 8002ebc:	00e70fd4 	movui	r3,39999
 8002ec0:	18bffa0e 	bge	r3,r2,8002eac <__alt_data_end+0xfc002eac>
				*(player1.x_loc) =  player1.respawn_x;
 8002ec4:	e0bfb717 	ldw	r2,-292(fp)
 8002ec8:	e0ffd317 	ldw	r3,-180(fp)
 8002ecc:	10c00015 	stw	r3,0(r2)
				*(player1.y_loc) =  player1.respawn_y;
 8002ed0:	e0bfb817 	ldw	r2,-288(fp)
 8002ed4:	e0ffd417 	ldw	r3,-176(fp)
 8002ed8:	10c00015 	stw	r3,0(r2)
				for(int j = 0; j < 40000; j++);
 8002edc:	e039e615 	stw	zero,-6248(fp)
 8002ee0:	00000306 	br	8002ef0 <main+0xfcc>
 8002ee4:	e0b9e617 	ldw	r2,-6248(fp)
 8002ee8:	10800044 	addi	r2,r2,1
 8002eec:	e0b9e615 	stw	r2,-6248(fp)
 8002ef0:	e0b9e617 	ldw	r2,-6248(fp)
 8002ef4:	00e70fd4 	movui	r3,39999
 8002ef8:	18bffa0e 	bge	r3,r2,8002ee4 <__alt_data_end+0xfc002ee4>
			else{
				updateScore(gptr, *(game.score_p1) - 1, *(game.score_p2));
				game.next_game_state = INGAME;
			}
			reset_player(p1ptr, p2ptr, 1);
			for(int i = 0; i < 5; i++){
 8002efc:	e0b9e417 	ldw	r2,-6256(fp)
 8002f00:	10800044 	addi	r2,r2,1
 8002f04:	e0b9e415 	stw	r2,-6256(fp)
 8002f08:	e0b9e417 	ldw	r2,-6256(fp)
 8002f0c:	10800150 	cmplti	r2,r2,5
 8002f10:	103fde1e 	bne	r2,zero,8002e8c <__alt_data_end+0xfc002e8c>
				for(int j = 0; j < 40000; j++);
				*(player1.x_loc) =  player1.respawn_x;
				*(player1.y_loc) =  player1.respawn_y;
				for(int j = 0; j < 40000; j++);
			}
			*(game.explosion_x) = OUT_OF_SCREEN;
 8002f14:	e0bfb017 	ldw	r2,-320(fp)
 8002f18:	00c0af04 	movi	r3,700
 8002f1c:	10c00015 	stw	r3,0(r2)
			*(game.explosion_y) = OUT_OF_SCREEN;
 8002f20:	e0bfb117 	ldw	r2,-316(fp)
 8002f24:	00c0af04 	movi	r3,700
 8002f28:	10c00015 	stw	r3,0(r2)
			game.curr_game_state = game.next_game_state;
 8002f2c:	e0bfaf17 	ldw	r2,-324(fp)
 8002f30:	e0bfae15 	stw	r2,-328(fp)
 8002f34:	0000e106 	br	80032bc <main+0x1398>
		}
		else if(game.curr_game_state == PLAYER2_SCORES){
 8002f38:	e0bfae17 	ldw	r2,-328(fp)
 8002f3c:	10800118 	cmpnei	r2,r2,4
 8002f40:	10006d1e 	bne	r2,zero,80030f8 <main+0x11d4>
			*(game.explosion_x) = *(player1.x_loc);
 8002f44:	e0bfb017 	ldw	r2,-320(fp)
 8002f48:	e0ffb717 	ldw	r3,-292(fp)
 8002f4c:	18c00017 	ldw	r3,0(r3)
 8002f50:	10c00015 	stw	r3,0(r2)
			*(game.explosion_y) = *(player1.y_loc) + 4;
 8002f54:	e0bfb117 	ldw	r2,-316(fp)
 8002f58:	e0ffb817 	ldw	r3,-288(fp)
 8002f5c:	18c00017 	ldw	r3,0(r3)
 8002f60:	18c00104 	addi	r3,r3,4
 8002f64:	10c00015 	stw	r3,0(r2)
			*(player1.x_loc) = OUT_OF_SCREEN;
 8002f68:	e0bfb717 	ldw	r2,-292(fp)
 8002f6c:	00c0af04 	movi	r3,700
 8002f70:	10c00015 	stw	r3,0(r2)
			*(player1.y_loc) = OUT_OF_SCREEN;
 8002f74:	e0bfb817 	ldw	r2,-288(fp)
 8002f78:	00c0af04 	movi	r3,700
 8002f7c:	10c00015 	stw	r3,0(r2)
			*(player2.missile_x) = OUT_OF_SCREEN;
 8002f80:	e0bfde17 	ldw	r2,-136(fp)
 8002f84:	00c0af04 	movi	r3,700
 8002f88:	10c00015 	stw	r3,0(r2)
			*(player2.missile_y) = OUT_OF_SCREEN;
 8002f8c:	e0bfdf17 	ldw	r2,-132(fp)
 8002f90:	00c0af04 	movi	r3,700
 8002f94:	10c00015 	stw	r3,0(r2)
			*(player1.missile_x) = OUT_OF_SCREEN;
 8002f98:	e0bfc017 	ldw	r2,-256(fp)
 8002f9c:	00c0af04 	movi	r3,700
 8002fa0:	10c00015 	stw	r3,0(r2)
			*(player1.missile_y) = OUT_OF_SCREEN;
 8002fa4:	e0bfc117 	ldw	r2,-252(fp)
 8002fa8:	00c0af04 	movi	r3,700
 8002fac:	10c00015 	stw	r3,0(r2)
			playExplosion(gptr);
 8002fb0:	e139ea17 	ldw	r4,-6232(fp)
 8002fb4:	8001d180 	call	8001d18 <playExplosion>
			if(*(game.score_p2)+ 1 + (int)(player2.missile_bounce > 0) >= 0x3a){
 8002fb8:	e0bfa517 	ldw	r2,-364(fp)
 8002fbc:	10800017 	ldw	r2,0(r2)
 8002fc0:	10c00044 	addi	r3,r2,1
 8002fc4:	e0bfef17 	ldw	r2,-68(fp)
 8002fc8:	0084803a 	cmplt	r2,zero,r2
 8002fcc:	10803fcc 	andi	r2,r2,255
 8002fd0:	1885883a 	add	r2,r3,r2
 8002fd4:	10800e90 	cmplti	r2,r2,58
 8002fd8:	1000071e 	bne	r2,zero,8002ff8 <main+0x10d4>
				updateScore(gptr, 0x4c, 0x57);
 8002fdc:	018015c4 	movi	r6,87
 8002fe0:	01401304 	movi	r5,76
 8002fe4:	e139ea17 	ldw	r4,-6232(fp)
 8002fe8:	8001bc80 	call	8001bc8 <updateScore>
				game.next_game_state = PLAYER2_WINS;
 8002fec:	008001c4 	movi	r2,7
 8002ff0:	e0bfaf15 	stw	r2,-324(fp)
 8002ff4:	00000f06 	br	8003034 <main+0x1110>
			}
			else{
				updateScore(gptr, *(game.score_p1), *(game.score_p2) + 1+ (int)(player2.missile_bounce > 0));
 8002ff8:	e0bfa417 	ldw	r2,-368(fp)
 8002ffc:	11000017 	ldw	r4,0(r2)
 8003000:	e0bfa517 	ldw	r2,-364(fp)
 8003004:	10800017 	ldw	r2,0(r2)
 8003008:	10c00044 	addi	r3,r2,1
 800300c:	e0bfef17 	ldw	r2,-68(fp)
 8003010:	0084803a 	cmplt	r2,zero,r2
 8003014:	10803fcc 	andi	r2,r2,255
 8003018:	1885883a 	add	r2,r3,r2
 800301c:	100d883a 	mov	r6,r2
 8003020:	200b883a 	mov	r5,r4
 8003024:	e139ea17 	ldw	r4,-6232(fp)
 8003028:	8001bc80 	call	8001bc8 <updateScore>
				game.next_game_state = INGAME;
 800302c:	00800044 	movi	r2,1
 8003030:	e0bfaf15 	stw	r2,-324(fp)
			}
			//while(*key != 1 || key_prev == 1);
			reset_player(p1ptr, p2ptr, 1);
 8003034:	01800044 	movi	r6,1
 8003038:	e179ec17 	ldw	r5,-6224(fp)
 800303c:	e139eb17 	ldw	r4,-6228(fp)
 8003040:	8001da00 	call	8001da0 <reset_player>
			for(int i = 0; i < 5; i++){
 8003044:	e039e715 	stw	zero,-6244(fp)
 8003048:	00001f06 	br	80030c8 <main+0x11a4>
				*(player1.x_loc) = OUT_OF_SCREEN;
 800304c:	e0bfb717 	ldw	r2,-292(fp)
 8003050:	00c0af04 	movi	r3,700
 8003054:	10c00015 	stw	r3,0(r2)
				*(player1.y_loc) = OUT_OF_SCREEN;
 8003058:	e0bfb817 	ldw	r2,-288(fp)
 800305c:	00c0af04 	movi	r3,700
 8003060:	10c00015 	stw	r3,0(r2)
				for(int j = 0; j < 40000; j++);
 8003064:	e039e815 	stw	zero,-6240(fp)
 8003068:	00000306 	br	8003078 <main+0x1154>
 800306c:	e0b9e817 	ldw	r2,-6240(fp)
 8003070:	10800044 	addi	r2,r2,1
 8003074:	e0b9e815 	stw	r2,-6240(fp)
 8003078:	e0b9e817 	ldw	r2,-6240(fp)
 800307c:	00e70fd4 	movui	r3,39999
 8003080:	18bffa0e 	bge	r3,r2,800306c <__alt_data_end+0xfc00306c>
				*(player1.x_loc) =  player1.respawn_x;
 8003084:	e0bfb717 	ldw	r2,-292(fp)
 8003088:	e0ffd317 	ldw	r3,-180(fp)
 800308c:	10c00015 	stw	r3,0(r2)
				*(player1.y_loc) =  player1.respawn_y;
 8003090:	e0bfb817 	ldw	r2,-288(fp)
 8003094:	e0ffd417 	ldw	r3,-176(fp)
 8003098:	10c00015 	stw	r3,0(r2)
				for(int j = 0; j < 40000; j++);
 800309c:	e039e915 	stw	zero,-6236(fp)
 80030a0:	00000306 	br	80030b0 <main+0x118c>
 80030a4:	e0b9e917 	ldw	r2,-6236(fp)
 80030a8:	10800044 	addi	r2,r2,1
 80030ac:	e0b9e915 	stw	r2,-6236(fp)
 80030b0:	e0b9e917 	ldw	r2,-6236(fp)
 80030b4:	00e70fd4 	movui	r3,39999
 80030b8:	18bffa0e 	bge	r3,r2,80030a4 <__alt_data_end+0xfc0030a4>
				updateScore(gptr, *(game.score_p1), *(game.score_p2) + 1+ (int)(player2.missile_bounce > 0));
				game.next_game_state = INGAME;
			}
			//while(*key != 1 || key_prev == 1);
			reset_player(p1ptr, p2ptr, 1);
			for(int i = 0; i < 5; i++){
 80030bc:	e0b9e717 	ldw	r2,-6244(fp)
 80030c0:	10800044 	addi	r2,r2,1
 80030c4:	e0b9e715 	stw	r2,-6244(fp)
 80030c8:	e0b9e717 	ldw	r2,-6244(fp)
 80030cc:	10800150 	cmplti	r2,r2,5
 80030d0:	103fde1e 	bne	r2,zero,800304c <__alt_data_end+0xfc00304c>
				for(int j = 0; j < 40000; j++);
				*(player1.x_loc) =  player1.respawn_x;
				*(player1.y_loc) =  player1.respawn_y;
				for(int j = 0; j < 40000; j++);
			}
			*(game.explosion_x) = OUT_OF_SCREEN;
 80030d4:	e0bfb017 	ldw	r2,-320(fp)
 80030d8:	00c0af04 	movi	r3,700
 80030dc:	10c00015 	stw	r3,0(r2)
			*(game.explosion_y) = OUT_OF_SCREEN;
 80030e0:	e0bfb117 	ldw	r2,-316(fp)
 80030e4:	00c0af04 	movi	r3,700
 80030e8:	10c00015 	stw	r3,0(r2)
			game.curr_game_state = game.next_game_state;
 80030ec:	e0bfaf17 	ldw	r2,-324(fp)
 80030f0:	e0bfae15 	stw	r2,-328(fp)
 80030f4:	00007106 	br	80032bc <main+0x1398>
		}
		else if(game.curr_game_state == PLAYER1_WINS){
 80030f8:	e0bfae17 	ldw	r2,-328(fp)
 80030fc:	10800198 	cmpnei	r2,r2,6
 8003100:	1000361e 	bne	r2,zero,80031dc <main+0x12b8>
			updateScore(gptr, 0x57, 0x4c);
 8003104:	01801304 	movi	r6,76
 8003108:	014015c4 	movi	r5,87
 800310c:	e139ea17 	ldw	r4,-6232(fp)
 8003110:	8001bc80 	call	8001bc8 <updateScore>
			if(*key == 1 && key_prev != 1){
 8003114:	e0b9ef17 	ldw	r2,-6212(fp)
 8003118:	10800017 	ldw	r2,0(r2)
 800311c:	10800058 	cmpnei	r2,r2,1
 8003120:	1000661e 	bne	r2,zero,80032bc <main+0x1398>
 8003124:	e0b9dd17 	ldw	r2,-6284(fp)
 8003128:	10800060 	cmpeqi	r2,r2,1
 800312c:	1000631e 	bne	r2,zero,80032bc <main+0x1398>
				updateScore(gptr, 0x30, 0x30);
 8003130:	01800c04 	movi	r6,48
 8003134:	01400c04 	movi	r5,48
 8003138:	e139ea17 	ldw	r4,-6232(fp)
 800313c:	8001bc80 	call	8001bc8 <updateScore>
				setLoc(p1ptr, player1.respawn_x, player1.respawn_y);
 8003140:	e0bfd317 	ldw	r2,-180(fp)
 8003144:	e0ffd417 	ldw	r3,-176(fp)
 8003148:	180d883a 	mov	r6,r3
 800314c:	100b883a 	mov	r5,r2
 8003150:	e139eb17 	ldw	r4,-6228(fp)
 8003154:	8001b7c0 	call	8001b7c <setLoc>
				setLoc(p2ptr, player2.respawn_x, player2.respawn_y);
 8003158:	e0bff117 	ldw	r2,-60(fp)
 800315c:	e0fff217 	ldw	r3,-56(fp)
 8003160:	180d883a 	mov	r6,r3
 8003164:	100b883a 	mov	r5,r2
 8003168:	e139ec17 	ldw	r4,-6224(fp)
 800316c:	8001b7c0 	call	8001b7c <setLoc>
				// Reset values
				*(player1.missile_x) = 700;
 8003170:	e0bfc017 	ldw	r2,-256(fp)
 8003174:	00c0af04 	movi	r3,700
 8003178:	10c00015 	stw	r3,0(r2)
				*(player2.missile_x) = 700;
 800317c:	e0bfde17 	ldw	r2,-136(fp)
 8003180:	00c0af04 	movi	r3,700
 8003184:	10c00015 	stw	r3,0(r2)
				*(player1.missile_y) = 700;
 8003188:	e0bfc117 	ldw	r2,-252(fp)
 800318c:	00c0af04 	movi	r3,700
 8003190:	10c00015 	stw	r3,0(r2)
				*(player2.missile_y) = 700;
 8003194:	e0bfdf17 	ldw	r2,-132(fp)
 8003198:	00c0af04 	movi	r3,700
 800319c:	10c00015 	stw	r3,0(r2)
				(player1.missile_motion_x) = 700;
 80031a0:	0080af04 	movi	r2,700
 80031a4:	e0bfc515 	stw	r2,-236(fp)
				(player2.missile_motion_x) = 700;
 80031a8:	0080af04 	movi	r2,700
 80031ac:	e0bfe315 	stw	r2,-116(fp)
				(player1.missile_motion_y) = 700;
 80031b0:	0080af04 	movi	r2,700
 80031b4:	e0bfc615 	stw	r2,-232(fp)
				(player2.missile_motion_y) = 700;
 80031b8:	0080af04 	movi	r2,700
 80031bc:	e0bfe415 	stw	r2,-112(fp)
				*(player2.dir) = 0;
 80031c0:	e0bfdb17 	ldw	r2,-148(fp)
 80031c4:	10000005 	stb	zero,0(r2)
				*(player1.dir) = 0;
 80031c8:	e0bfbd17 	ldw	r2,-268(fp)
 80031cc:	10000005 	stb	zero,0(r2)
				game.curr_game_state = INGAME;
 80031d0:	00800044 	movi	r2,1
 80031d4:	e0bfae15 	stw	r2,-328(fp)
 80031d8:	00003806 	br	80032bc <main+0x1398>
			}
		}
		else if(game.curr_game_state == PLAYER2_WINS){
 80031dc:	e0bfae17 	ldw	r2,-328(fp)
 80031e0:	108001d8 	cmpnei	r2,r2,7
 80031e4:	1000351e 	bne	r2,zero,80032bc <main+0x1398>
			updateScore(gptr, 0x4c, 0x57);
 80031e8:	018015c4 	movi	r6,87
 80031ec:	01401304 	movi	r5,76
 80031f0:	e139ea17 	ldw	r4,-6232(fp)
 80031f4:	8001bc80 	call	8001bc8 <updateScore>
			if(*key == 1 && key_prev != 1){
 80031f8:	e0b9ef17 	ldw	r2,-6212(fp)
 80031fc:	10800017 	ldw	r2,0(r2)
 8003200:	10800058 	cmpnei	r2,r2,1
 8003204:	10002d1e 	bne	r2,zero,80032bc <main+0x1398>
 8003208:	e0b9dd17 	ldw	r2,-6284(fp)
 800320c:	10800060 	cmpeqi	r2,r2,1
 8003210:	10002a1e 	bne	r2,zero,80032bc <main+0x1398>
				updateScore(gptr, 0x30, 0x30);
 8003214:	01800c04 	movi	r6,48
 8003218:	01400c04 	movi	r5,48
 800321c:	e139ea17 	ldw	r4,-6232(fp)
 8003220:	8001bc80 	call	8001bc8 <updateScore>
				setLoc(p1ptr, player1.respawn_x, player1.respawn_y);
 8003224:	e0bfd317 	ldw	r2,-180(fp)
 8003228:	e0ffd417 	ldw	r3,-176(fp)
 800322c:	180d883a 	mov	r6,r3
 8003230:	100b883a 	mov	r5,r2
 8003234:	e139eb17 	ldw	r4,-6228(fp)
 8003238:	8001b7c0 	call	8001b7c <setLoc>
				setLoc(p2ptr, player2.respawn_x, player2.respawn_y);
 800323c:	e0bff117 	ldw	r2,-60(fp)
 8003240:	e0fff217 	ldw	r3,-56(fp)
 8003244:	180d883a 	mov	r6,r3
 8003248:	100b883a 	mov	r5,r2
 800324c:	e139ec17 	ldw	r4,-6224(fp)
 8003250:	8001b7c0 	call	8001b7c <setLoc>
				// Reset values
				*(player1.missile_x) = 700;
 8003254:	e0bfc017 	ldw	r2,-256(fp)
 8003258:	00c0af04 	movi	r3,700
 800325c:	10c00015 	stw	r3,0(r2)
				*(player2.missile_x) = 700;
 8003260:	e0bfde17 	ldw	r2,-136(fp)
 8003264:	00c0af04 	movi	r3,700
 8003268:	10c00015 	stw	r3,0(r2)
				*(player1.missile_y) = 700;
 800326c:	e0bfc117 	ldw	r2,-252(fp)
 8003270:	00c0af04 	movi	r3,700
 8003274:	10c00015 	stw	r3,0(r2)
				*(player2.missile_y) = 700;
 8003278:	e0bfdf17 	ldw	r2,-132(fp)
 800327c:	00c0af04 	movi	r3,700
 8003280:	10c00015 	stw	r3,0(r2)
				(player1.missile_motion_x) = 700;
 8003284:	0080af04 	movi	r2,700
 8003288:	e0bfc515 	stw	r2,-236(fp)
				(player2.missile_motion_x) = 700;
 800328c:	0080af04 	movi	r2,700
 8003290:	e0bfe315 	stw	r2,-116(fp)
				(player1.missile_motion_y) = 700;
 8003294:	0080af04 	movi	r2,700
 8003298:	e0bfc615 	stw	r2,-232(fp)
				(player2.missile_motion_y) = 700;
 800329c:	0080af04 	movi	r2,700
 80032a0:	e0bfe415 	stw	r2,-112(fp)
				*(player2.dir) = 0;
 80032a4:	e0bfdb17 	ldw	r2,-148(fp)
 80032a8:	10000005 	stb	zero,0(r2)
				*(player1.dir) = 0;
 80032ac:	e0bfbd17 	ldw	r2,-268(fp)
 80032b0:	10000005 	stb	zero,0(r2)
				game.curr_game_state = INGAME;
 80032b4:	00800044 	movi	r2,1
 80032b8:	e0bfae15 	stw	r2,-328(fp)
			}
		}

		if(*key == 2 && key_prev != *key){
 80032bc:	e0b9ef17 	ldw	r2,-6212(fp)
 80032c0:	10800017 	ldw	r2,0(r2)
 80032c4:	10800098 	cmpnei	r2,r2,2
 80032c8:	1000051e 	bne	r2,zero,80032e0 <main+0x13bc>
 80032cc:	e0b9ef17 	ldw	r2,-6212(fp)
 80032d0:	10c00017 	ldw	r3,0(r2)
 80032d4:	e0b9dd17 	ldw	r2,-6284(fp)
 80032d8:	18800126 	beq	r3,r2,80032e0 <main+0x13bc>
			game.curr_game_state = HALT;
 80032dc:	e03fae15 	stw	zero,-328(fp)
		}
		key_prev = *key;
 80032e0:	e0b9ef17 	ldw	r2,-6212(fp)
 80032e4:	10800017 	ldw	r2,0(r2)
 80032e8:	e0b9dd15 	stw	r2,-6284(fp)
		MAX3421E_Task();
 80032ec:	80044f00 	call	80044f0 <MAX3421E_Task>
		USB_Task();
 80032f0:	8004c840 	call	8004c84 <USB_Task>
		//usleep (500000);
		if (GetUsbTaskState() == USB_STATE_RUNNING) {
 80032f4:	80053f40 	call	80053f4 <GetUsbTaskState>
 80032f8:	10803fcc 	andi	r2,r2,255
 80032fc:	10801018 	cmpnei	r2,r2,64
 8003300:	10007a1e 	bne	r2,zero,80034ec <main+0x15c8>
			if (!runningdebugflag) {
 8003304:	e0b9db03 	ldbu	r2,-6292(fp)
 8003308:	1000071e 	bne	r2,zero,8003328 <main+0x1404>
				runningdebugflag = 1;
 800330c:	00800044 	movi	r2,1
 8003310:	e0b9db05 	stb	r2,-6292(fp)
				setLED(9);
 8003314:	01000244 	movi	r4,9
 8003318:	800045c0 	call	800045c <setLED>
				device = GetDriverandReport();
 800331c:	800026c0 	call	800026c <GetDriverandReport>
 8003320:	e0b9db85 	stb	r2,-6290(fp)
 8003324:	003c8206 	br	8002530 <__alt_data_end+0xfc002530>
			} else if (device == 1) {
 8003328:	e0b9db83 	ldbu	r2,-6290(fp)
 800332c:	10800058 	cmpnei	r2,r2,1
 8003330:	1000121e 	bne	r2,zero,800337c <main+0x1458>
				//run keyboard debug polling
				rcode = kbdPoll(&kbdbuf);
 8003334:	e0b9f344 	addi	r2,fp,-6195
 8003338:	1009883a 	mov	r4,r2
 800333c:	8003e540 	call	8003e54 <kbdPoll>
 8003340:	e0b9f105 	stb	r2,-6204(fp)
				if (rcode == hrNAK) {
 8003344:	e0b9f103 	ldbu	r2,-6204(fp)
 8003348:	10800118 	cmpnei	r2,r2,4
 800334c:	10008726 	beq	r2,zero,800356c <main+0x1648>
					continue; //NAK means no new data
				} else if (rcode) {
 8003350:	e0b9f103 	ldbu	r2,-6204(fp)
 8003354:	103c7626 	beq	r2,zero,8002530 <__alt_data_end+0xfc002530>
					printf("Rcode: ");
 8003358:	01020074 	movhi	r4,2049
 800335c:	211e6b04 	addi	r4,r4,31148
 8003360:	800a5740 	call	800a574 <printf>
					printf("%x \n", rcode);
 8003364:	e0b9f103 	ldbu	r2,-6204(fp)
 8003368:	100b883a 	mov	r5,r2
 800336c:	01020074 	movhi	r4,2049
 8003370:	211e3c04 	addi	r4,r4,30960
 8003374:	800a5740 	call	800a574 <printf>
					continue;
 8003378:	00007f06 	br	8003578 <main+0x1654>
//				for (int i = 0; i < 6; i++) {
//					printf("%x ", kbdbuf.keycode[i]);
//				}
			}

			else if (device == 2) {
 800337c:	e0b9db83 	ldbu	r2,-6290(fp)
 8003380:	10800098 	cmpnei	r2,r2,2
 8003384:	103c6a1e 	bne	r2,zero,8002530 <__alt_data_end+0xfc002530>
				rcode = mousePoll(&buf);
 8003388:	e0b9f144 	addi	r2,fp,-6203
 800338c:	1009883a 	mov	r4,r2
 8003390:	8003dcc0 	call	8003dcc <mousePoll>
 8003394:	e0b9f105 	stb	r2,-6204(fp)
				if (rcode == hrNAK) {
 8003398:	e0b9f103 	ldbu	r2,-6204(fp)
 800339c:	10800118 	cmpnei	r2,r2,4
 80033a0:	10007426 	beq	r2,zero,8003574 <main+0x1650>
					//NAK means no new data
					continue;
				} else if (rcode) {
 80033a4:	e0b9f103 	ldbu	r2,-6204(fp)
 80033a8:	10000926 	beq	r2,zero,80033d0 <main+0x14ac>
					printf("Rcode: ");
 80033ac:	01020074 	movhi	r4,2049
 80033b0:	211e6b04 	addi	r4,r4,31148
 80033b4:	800a5740 	call	800a574 <printf>
					printf("%x \n", rcode);
 80033b8:	e0b9f103 	ldbu	r2,-6204(fp)
 80033bc:	100b883a 	mov	r5,r2
 80033c0:	01020074 	movhi	r4,2049
 80033c4:	211e3c04 	addi	r4,r4,30960
 80033c8:	800a5740 	call	800a574 <printf>
					continue;
 80033cc:	00006a06 	br	8003578 <main+0x1654>
				}
				printf("X displacement: ");
 80033d0:	01020074 	movhi	r4,2049
 80033d4:	211e6d04 	addi	r4,r4,31156
 80033d8:	800a5740 	call	800a574 <printf>
				printf("%d ", (signed char) buf.Xdispl);
 80033dc:	e0b9f183 	ldbu	r2,-6202(fp)
 80033e0:	10803fcc 	andi	r2,r2,255
 80033e4:	1080201c 	xori	r2,r2,128
 80033e8:	10bfe004 	addi	r2,r2,-128
 80033ec:	100b883a 	mov	r5,r2
 80033f0:	01020074 	movhi	r4,2049
 80033f4:	211e7204 	addi	r4,r4,31176
 80033f8:	800a5740 	call	800a574 <printf>
				printSignedHex0((signed char) buf.Xdispl);
 80033fc:	e0b9f183 	ldbu	r2,-6202(fp)
 8003400:	10803fcc 	andi	r2,r2,255
 8003404:	1080201c 	xori	r2,r2,128
 8003408:	10bfe004 	addi	r2,r2,-128
 800340c:	1009883a 	mov	r4,r2
 8003410:	80004e80 	call	80004e8 <printSignedHex0>
				printf("Y displacement: ");
 8003414:	01020074 	movhi	r4,2049
 8003418:	211e7304 	addi	r4,r4,31180
 800341c:	800a5740 	call	800a574 <printf>
				printf("%d ", (signed char) buf.Ydispl);
 8003420:	e0b9f1c3 	ldbu	r2,-6201(fp)
 8003424:	10803fcc 	andi	r2,r2,255
 8003428:	1080201c 	xori	r2,r2,128
 800342c:	10bfe004 	addi	r2,r2,-128
 8003430:	100b883a 	mov	r5,r2
 8003434:	01020074 	movhi	r4,2049
 8003438:	211e7204 	addi	r4,r4,31176
 800343c:	800a5740 	call	800a574 <printf>
				printSignedHex1((signed char) buf.Ydispl);
 8003440:	e0b9f1c3 	ldbu	r2,-6201(fp)
 8003444:	10803fcc 	andi	r2,r2,255
 8003448:	1080201c 	xori	r2,r2,128
 800344c:	10bfe004 	addi	r2,r2,-128
 8003450:	1009883a 	mov	r4,r2
 8003454:	80006000 	call	8000600 <printSignedHex1>
				printf("Buttons: ");
 8003458:	01020074 	movhi	r4,2049
 800345c:	211e7804 	addi	r4,r4,31200
 8003460:	800a5740 	call	800a574 <printf>
				printf("%x\n", buf.button);
 8003464:	e0b9f143 	ldbu	r2,-6203(fp)
 8003468:	10803fcc 	andi	r2,r2,255
 800346c:	100b883a 	mov	r5,r2
 8003470:	01020074 	movhi	r4,2049
 8003474:	211e7b04 	addi	r4,r4,31212
 8003478:	800a5740 	call	800a574 <printf>
				if (buf.button & 0x04)
 800347c:	e0b9f143 	ldbu	r2,-6203(fp)
 8003480:	10803fcc 	andi	r2,r2,255
 8003484:	1080010c 	andi	r2,r2,4
 8003488:	10000326 	beq	r2,zero,8003498 <main+0x1574>
					setLED(2);
 800348c:	01000084 	movi	r4,2
 8003490:	800045c0 	call	800045c <setLED>
 8003494:	00000206 	br	80034a0 <main+0x157c>
				else
					clearLED(2);
 8003498:	01000084 	movi	r4,2
 800349c:	80004a00 	call	80004a0 <clearLED>
				if (buf.button & 0x02)
 80034a0:	e0b9f143 	ldbu	r2,-6203(fp)
 80034a4:	10803fcc 	andi	r2,r2,255
 80034a8:	1080008c 	andi	r2,r2,2
 80034ac:	10000326 	beq	r2,zero,80034bc <main+0x1598>
					setLED(1);
 80034b0:	01000044 	movi	r4,1
 80034b4:	800045c0 	call	800045c <setLED>
 80034b8:	00000206 	br	80034c4 <main+0x15a0>
				else
					clearLED(1);
 80034bc:	01000044 	movi	r4,1
 80034c0:	80004a00 	call	80004a0 <clearLED>
				if (buf.button & 0x01)
 80034c4:	e0b9f143 	ldbu	r2,-6203(fp)
 80034c8:	10803fcc 	andi	r2,r2,255
 80034cc:	1080004c 	andi	r2,r2,1
 80034d0:	10000326 	beq	r2,zero,80034e0 <main+0x15bc>
					setLED(0);
 80034d4:	0009883a 	mov	r4,zero
 80034d8:	800045c0 	call	800045c <setLED>
 80034dc:	003c1406 	br	8002530 <__alt_data_end+0xfc002530>
				else
					clearLED(0);
 80034e0:	0009883a 	mov	r4,zero
 80034e4:	80004a00 	call	80004a0 <clearLED>
 80034e8:	003c1106 	br	8002530 <__alt_data_end+0xfc002530>
			}
		} else if (GetUsbTaskState() == USB_STATE_ERROR) {
 80034ec:	80053f40 	call	80053f4 <GetUsbTaskState>
 80034f0:	10803fcc 	andi	r2,r2,255
 80034f4:	10803fd8 	cmpnei	r2,r2,255
 80034f8:	10000a1e 	bne	r2,zero,8003524 <main+0x1600>
			if (!errorflag) {
 80034fc:	e0b9db43 	ldbu	r2,-6291(fp)
 8003500:	103c0b1e 	bne	r2,zero,8002530 <__alt_data_end+0xfc002530>
				errorflag = 1;
 8003504:	00800044 	movi	r2,1
 8003508:	e0b9db45 	stb	r2,-6291(fp)
				clearLED(9);
 800350c:	01000244 	movi	r4,9
 8003510:	80004a00 	call	80004a0 <clearLED>
				printf("USB Error State\n");
 8003514:	01020074 	movhi	r4,2049
 8003518:	211e7c04 	addi	r4,r4,31216
 800351c:	800a6700 	call	800a670 <puts>
 8003520:	003c0306 	br	8002530 <__alt_data_end+0xfc002530>
				//print out string descriptor here
			}
		} else //not in USB running state
		{

			printf("USB task state: ");
 8003524:	01020074 	movhi	r4,2049
 8003528:	211e8004 	addi	r4,r4,31232
 800352c:	800a5740 	call	800a574 <printf>
			printf("%x\n", GetUsbTaskState());
 8003530:	80053f40 	call	80053f4 <GetUsbTaskState>
 8003534:	10803fcc 	andi	r2,r2,255
 8003538:	100b883a 	mov	r5,r2
 800353c:	01020074 	movhi	r4,2049
 8003540:	211e7b04 	addi	r4,r4,31212
 8003544:	800a5740 	call	800a574 <printf>
			if (runningdebugflag) {	//previously running, reset USB hardware just to clear out any funky state, HS/FS etc
 8003548:	e0b9db03 	ldbu	r2,-6292(fp)
 800354c:	10000326 	beq	r2,zero,800355c <main+0x1638>
				runningdebugflag = 0;
 8003550:	e039db05 	stb	zero,-6292(fp)
				MAX3421E_init();
 8003554:	800445c0 	call	800445c <MAX3421E_init>
				USB_init();
 8003558:	8004bec0 	call	8004bec <USB_init>
			}
			errorflag = 0;
 800355c:	e039db45 	stb	zero,-6291(fp)
			clearLED(9);
 8003560:	01000244 	movi	r4,9
 8003564:	80004a00 	call	80004a0 <clearLED>
 8003568:	003bf106 	br	8002530 <__alt_data_end+0xfc002530>
				device = GetDriverandReport();
			} else if (device == 1) {
				//run keyboard debug polling
				rcode = kbdPoll(&kbdbuf);
				if (rcode == hrNAK) {
					continue; //NAK means no new data
 800356c:	0001883a 	nop
 8003570:	003bef06 	br	8002530 <__alt_data_end+0xfc002530>

			else if (device == 2) {
				rcode = mousePoll(&buf);
				if (rcode == hrNAK) {
					//NAK means no new data
					continue;
 8003574:	0001883a 	nop
			}
			errorflag = 0;
			clearLED(9);
		}

	}
 8003578:	003bed06 	br	8002530 <__alt_data_end+0xfc002530>

0800357c <HIDMProbe>:
/* HID Mouse probe. Called from USB state machine.                          */
/* assumes configuration length is less than 256 bytes                      */
/* looks for Class:03, Subclass: 01, Protocol: 02 in interface descriptor   */
/* sets mouse in boot protocol                                              */
/* assumes single configuration and interface configuration 0               */
BOOL HIDMProbe(BYTE addr, DWORD flags) {
 800357c:	defff204 	addi	sp,sp,-56
 8003580:	dfc00d15 	stw	ra,52(sp)
 8003584:	df000c15 	stw	fp,48(sp)
 8003588:	df000c04 	addi	fp,sp,48
 800358c:	2005883a 	mov	r2,r4
 8003590:	e17fff15 	stw	r5,-4(fp)
 8003594:	e0bffe05 	stb	r2,-8(fp)
	BYTE tmpbyte;
	BYTE rcode;
	BYTE confvalue;
	WORD total_length;
	USB_DESCR* data_ptr = (USB_DESCR *) &bigbuf;
 8003598:	008200b4 	movhi	r2,2050
 800359c:	10adbe04 	addi	r2,r2,-18696
 80035a0:	e0bffa15 	stw	r2,-24(fp)
	BYTE* byte_ptr = bigbuf;
 80035a4:	008200b4 	movhi	r2,2050
 80035a8:	10adbe04 	addi	r2,r2,-18696
 80035ac:	e0bffb15 	stw	r2,-20(fp)
	rcode = XferGetConfDescr(addr, 0, CONF_DESCR_LEN, 0, bigbuf); //get configuration descriptor
 80035b0:	e0fffe03 	ldbu	r3,-8(fp)
 80035b4:	008200b4 	movhi	r2,2050
 80035b8:	10adbe04 	addi	r2,r2,-18696
 80035bc:	d8800415 	stw	r2,16(sp)
 80035c0:	00800244 	movi	r2,9
 80035c4:	d8800315 	stw	r2,12(sp)
 80035c8:	d8000215 	stw	zero,8(sp)
 80035cc:	00800084 	movi	r2,2
 80035d0:	d8800115 	stw	r2,4(sp)
 80035d4:	d8000015 	stw	zero,0(sp)
 80035d8:	01c00184 	movi	r7,6
 80035dc:	01802004 	movi	r6,128
 80035e0:	000b883a 	mov	r5,zero
 80035e4:	1809883a 	mov	r4,r3
 80035e8:	80046540 	call	8004654 <XferCtrlReq>
 80035ec:	e0bffc05 	stb	r2,-16(fp)
	if (rcode) {   //error handling
 80035f0:	e0bffc03 	ldbu	r2,-16(fp)
 80035f4:	10000226 	beq	r2,zero,8003600 <HIDMProbe+0x84>
		//printf("unable to get configuration descriptor");
		return (FALSE);
 80035f8:	0005883a 	mov	r2,zero
 80035fc:	0000dc06 	br	8003970 <HIDMProbe+0x3f4>
	}
	if (data_ptr->descr.config.wTotalLength > 256) {
 8003600:	e0bffa17 	ldw	r2,-24(fp)
 8003604:	1080008b 	ldhu	r2,2(r2)
 8003608:	10bfffcc 	andi	r2,r2,65535
 800360c:	10804070 	cmpltui	r2,r2,257
 8003610:	1000031e 	bne	r2,zero,8003620 <HIDMProbe+0xa4>
		total_length = 256;
 8003614:	00804004 	movi	r2,256
 8003618:	e0bff90d 	sth	r2,-28(fp)
 800361c:	00000306 	br	800362c <HIDMProbe+0xb0>
	} else {
		total_length = data_ptr->descr.config.wTotalLength;
 8003620:	e0bffa17 	ldw	r2,-24(fp)
 8003624:	1080008b 	ldhu	r2,2(r2)
 8003628:	e0bff90d 	sth	r2,-28(fp)
	}
	rcode = XferGetConfDescr(addr, 0, total_length, 0, bigbuf); //get the whole configuration
 800362c:	e13ffe03 	ldbu	r4,-8(fp)
 8003630:	e0fff90b 	ldhu	r3,-28(fp)
 8003634:	008200b4 	movhi	r2,2050
 8003638:	10adbe04 	addi	r2,r2,-18696
 800363c:	d8800415 	stw	r2,16(sp)
 8003640:	d8c00315 	stw	r3,12(sp)
 8003644:	d8000215 	stw	zero,8(sp)
 8003648:	00800084 	movi	r2,2
 800364c:	d8800115 	stw	r2,4(sp)
 8003650:	d8000015 	stw	zero,0(sp)
 8003654:	01c00184 	movi	r7,6
 8003658:	01802004 	movi	r6,128
 800365c:	000b883a 	mov	r5,zero
 8003660:	80046540 	call	8004654 <XferCtrlReq>
 8003664:	e0bffc05 	stb	r2,-16(fp)
	if (rcode) {   //error handling
 8003668:	e0bffc03 	ldbu	r2,-16(fp)
 800366c:	10000226 	beq	r2,zero,8003678 <HIDMProbe+0xfc>
		//printf("unable to get configuration");
		return (FALSE);
 8003670:	0005883a 	mov	r2,zero
 8003674:	0000be06 	br	8003970 <HIDMProbe+0x3f4>
	}
	confvalue = data_ptr->descr.config.bConfigurationValue;
 8003678:	e0bffa17 	ldw	r2,-24(fp)
 800367c:	10800143 	ldbu	r2,5(r2)
 8003680:	e0bffc45 	stb	r2,-15(fp)
	//printf("checking configuration value (length: %d): ",
	//		data_ptr->descr.config.wTotalLength);
	//for (int i = 0; i < data_ptr->descr.config.wTotalLength; i++) {
		//printf("%x ", (unsigned char) (bigbuf[i] & 0xff));
	//}
	while (byte_ptr < bigbuf + total_length) {
 8003684:	0000b306 	br	8003954 <HIDMProbe+0x3d8>
		if (data_ptr->descr.config.bDescriptorType != USB_DESCRIPTOR_INTERFACE) {
 8003688:	e0bffa17 	ldw	r2,-24(fp)
 800368c:	10800043 	ldbu	r2,1(r2)
 8003690:	10803fcc 	andi	r2,r2,255
 8003694:	10800120 	cmpeqi	r2,r2,4
 8003698:	1000091e 	bne	r2,zero,80036c0 <HIDMProbe+0x144>
			byte_ptr = byte_ptr + data_ptr->descr.config.bLength;
 800369c:	e0bffa17 	ldw	r2,-24(fp)
 80036a0:	10800003 	ldbu	r2,0(r2)
 80036a4:	10803fcc 	andi	r2,r2,255
 80036a8:	e0fffb17 	ldw	r3,-20(fp)
 80036ac:	1885883a 	add	r2,r3,r2
 80036b0:	e0bffb15 	stw	r2,-20(fp)
			data_ptr = (USB_DESCR*) byte_ptr;
 80036b4:	e0bffb17 	ldw	r2,-20(fp)
 80036b8:	e0bffa15 	stw	r2,-24(fp)
 80036bc:	0000a506 	br	8003954 <HIDMProbe+0x3d8>
		} // if( data_ptr->descr.config.bDescriptorType != USB_DESCRIPTOR_INTERFACE
		else {
			//printf("starting interface parsing at byte location %d\n",
			//		data_ptr->descr.config.bLength);
			BYTE class = data_ptr->descr.interface.bInterfaceClass;
 80036c0:	e0bffa17 	ldw	r2,-24(fp)
 80036c4:	10800143 	ldbu	r2,5(r2)
 80036c8:	e0bffc85 	stb	r2,-14(fp)
			BYTE subclass = data_ptr->descr.interface.bInterfaceSubClass;
 80036cc:	e0bffa17 	ldw	r2,-24(fp)
 80036d0:	10800183 	ldbu	r2,6(r2)
 80036d4:	e0bffcc5 	stb	r2,-13(fp)
			BYTE protocol = data_ptr->descr.interface.bInterfaceProtocol;
 80036d8:	e0bffa17 	ldw	r2,-24(fp)
 80036dc:	108001c3 	ldbu	r2,7(r2)
 80036e0:	e0bffd05 	stb	r2,-12(fp)
			//printf("class %x, subclass %x, protocol %x,\n", class, subclass,
			//		protocol);
			//interface descriptor
			if (class == HID_INTF && subclass == BOOT_INTF_SUBCLASS
 80036e4:	e0bffc83 	ldbu	r2,-14(fp)
 80036e8:	108000d8 	cmpnei	r2,r2,3
 80036ec:	1000971e 	bne	r2,zero,800394c <HIDMProbe+0x3d0>
 80036f0:	e0bffcc3 	ldbu	r2,-13(fp)
 80036f4:	10800058 	cmpnei	r2,r2,1
 80036f8:	1000941e 	bne	r2,zero,800394c <HIDMProbe+0x3d0>
					&& protocol == HID_PROTOCOL_MOUSE) {
 80036fc:	e0bffd03 	ldbu	r2,-12(fp)
 8003700:	10800098 	cmpnei	r2,r2,2
 8003704:	1000911e 	bne	r2,zero,800394c <HIDMProbe+0x3d0>
				//detected a mouse
				devtable[addr].devclass = HID_M;                  //device class
 8003708:	e0fffe03 	ldbu	r3,-8(fp)
 800370c:	008200b4 	movhi	r2,2050
 8003710:	10adfe04 	addi	r2,r2,-18440
 8003714:	180690fa 	slli	r3,r3,3
 8003718:	10c5883a 	add	r2,r2,r3
 800371c:	10800104 	addi	r2,r2,4
 8003720:	00c00084 	movi	r3,2
 8003724:	10c00005 	stb	r3,0(r2)
				tmpbyte = devtable[addr].epinfo->MaxPktSize;
 8003728:	e0fffe03 	ldbu	r3,-8(fp)
 800372c:	008200b4 	movhi	r2,2050
 8003730:	10adfe04 	addi	r2,r2,-18440
 8003734:	180690fa 	slli	r3,r3,3
 8003738:	10c5883a 	add	r2,r2,r3
 800373c:	10800017 	ldw	r2,0(r2)
 8003740:	1080008b 	ldhu	r2,2(r2)
 8003744:	e0bffd45 	stb	r2,-11(fp)
				HID_init();                         //initialize data structures
 8003748:	8003d8c0 	call	8003d8c <HID_init>
				devtable[addr].epinfo = hid_ep; //switch endpoint information structure
 800374c:	e0fffe03 	ldbu	r3,-8(fp)
 8003750:	008200b4 	movhi	r2,2050
 8003754:	10adfe04 	addi	r2,r2,-18440
 8003758:	180690fa 	slli	r3,r3,3
 800375c:	10c7883a 	add	r3,r2,r3
 8003760:	008200b4 	movhi	r2,2050
 8003764:	10adaa04 	addi	r2,r2,-18776
 8003768:	18800015 	stw	r2,0(r3)
				devtable[addr].epinfo[0].MaxPktSize = tmpbyte;
 800376c:	e0fffe03 	ldbu	r3,-8(fp)
 8003770:	008200b4 	movhi	r2,2050
 8003774:	10adfe04 	addi	r2,r2,-18440
 8003778:	180690fa 	slli	r3,r3,3
 800377c:	10c5883a 	add	r2,r2,r3
 8003780:	10800017 	ldw	r2,0(r2)
 8003784:	e0fffd43 	ldbu	r3,-11(fp)
 8003788:	10c0008d 	sth	r3,2(r2)
				hid_device.interface =
						data_ptr->descr.interface.bInterfaceNumber;
 800378c:	e0bffa17 	ldw	r2,-24(fp)
 8003790:	10800083 	ldbu	r2,2(r2)
				devtable[addr].devclass = HID_M;                  //device class
				tmpbyte = devtable[addr].epinfo->MaxPktSize;
				HID_init();                         //initialize data structures
				devtable[addr].epinfo = hid_ep; //switch endpoint information structure
				devtable[addr].epinfo[0].MaxPktSize = tmpbyte;
				hid_device.interface =
 8003794:	d0a6df45 	stb	r2,-25731(gp)
						data_ptr->descr.interface.bInterfaceNumber;
				hid_device.addr = addr;
 8003798:	e0bffe03 	ldbu	r2,-8(fp)
 800379c:	d0a6df05 	stb	r2,-25732(gp)
				byte_ptr = byte_ptr + data_ptr->descr.config.bLength;
 80037a0:	e0bffa17 	ldw	r2,-24(fp)
 80037a4:	10800003 	ldbu	r2,0(r2)
 80037a8:	10803fcc 	andi	r2,r2,255
 80037ac:	e0fffb17 	ldw	r3,-20(fp)
 80037b0:	1885883a 	add	r2,r3,r2
 80037b4:	e0bffb15 	stw	r2,-20(fp)
				data_ptr = (USB_DESCR*) byte_ptr;
 80037b8:	e0bffb17 	ldw	r2,-20(fp)
 80037bc:	e0bffa15 	stw	r2,-24(fp)
				while (byte_ptr < bigbuf + total_length) {
 80037c0:	00005b06 	br	8003930 <HIDMProbe+0x3b4>
					if (data_ptr->descr.config.bDescriptorType
 80037c4:	e0bffa17 	ldw	r2,-24(fp)
 80037c8:	10800043 	ldbu	r2,1(r2)
 80037cc:	10803fcc 	andi	r2,r2,255
 80037d0:	10800160 	cmpeqi	r2,r2,5
 80037d4:	1000091e 	bne	r2,zero,80037fc <HIDMProbe+0x280>
							!= USB_DESCRIPTOR_ENDPOINT) { //skip to endpoint descriptor
						byte_ptr = byte_ptr + data_ptr->descr.config.bLength;
 80037d8:	e0bffa17 	ldw	r2,-24(fp)
 80037dc:	10800003 	ldbu	r2,0(r2)
 80037e0:	10803fcc 	andi	r2,r2,255
 80037e4:	e0fffb17 	ldw	r3,-20(fp)
 80037e8:	1885883a 	add	r2,r3,r2
 80037ec:	e0bffb15 	stw	r2,-20(fp)
						data_ptr = (USB_DESCR*) byte_ptr;
 80037f0:	e0bffb17 	ldw	r2,-20(fp)
 80037f4:	e0bffa15 	stw	r2,-24(fp)
 80037f8:	00004d06 	br	8003930 <HIDMProbe+0x3b4>
					} else {
						/* fill endpoint information structure */
						devtable[addr].epinfo[1].epAddr =
 80037fc:	e0fffe03 	ldbu	r3,-8(fp)
 8003800:	008200b4 	movhi	r2,2050
 8003804:	10adfe04 	addi	r2,r2,-18440
 8003808:	180690fa 	slli	r3,r3,3
 800380c:	10c5883a 	add	r2,r2,r3
 8003810:	10800017 	ldw	r2,0(r2)
 8003814:	10800204 	addi	r2,r2,8
								data_ptr->descr.endpoint.bEndpointAddress;
 8003818:	e0fffa17 	ldw	r3,-24(fp)
 800381c:	18c00083 	ldbu	r3,2(r3)
							!= USB_DESCRIPTOR_ENDPOINT) { //skip to endpoint descriptor
						byte_ptr = byte_ptr + data_ptr->descr.config.bLength;
						data_ptr = (USB_DESCR*) byte_ptr;
					} else {
						/* fill endpoint information structure */
						devtable[addr].epinfo[1].epAddr =
 8003820:	10c00005 	stb	r3,0(r2)
								data_ptr->descr.endpoint.bEndpointAddress;
						devtable[addr].epinfo[1].Attr =
 8003824:	e0fffe03 	ldbu	r3,-8(fp)
 8003828:	008200b4 	movhi	r2,2050
 800382c:	10adfe04 	addi	r2,r2,-18440
 8003830:	180690fa 	slli	r3,r3,3
 8003834:	10c5883a 	add	r2,r2,r3
 8003838:	10800017 	ldw	r2,0(r2)
 800383c:	10800204 	addi	r2,r2,8
								data_ptr->descr.endpoint.bmAttributes;
 8003840:	e0fffa17 	ldw	r3,-24(fp)
 8003844:	18c000c3 	ldbu	r3,3(r3)
						data_ptr = (USB_DESCR*) byte_ptr;
					} else {
						/* fill endpoint information structure */
						devtable[addr].epinfo[1].epAddr =
								data_ptr->descr.endpoint.bEndpointAddress;
						devtable[addr].epinfo[1].Attr =
 8003848:	10c00045 	stb	r3,1(r2)
								data_ptr->descr.endpoint.bmAttributes;
						devtable[addr].epinfo[1].MaxPktSize =
 800384c:	e0fffe03 	ldbu	r3,-8(fp)
 8003850:	008200b4 	movhi	r2,2050
 8003854:	10adfe04 	addi	r2,r2,-18440
 8003858:	180690fa 	slli	r3,r3,3
 800385c:	10c5883a 	add	r2,r2,r3
 8003860:	10800017 	ldw	r2,0(r2)
 8003864:	10800204 	addi	r2,r2,8
								data_ptr->descr.endpoint.wMaxPacketSize;
 8003868:	e0fffa17 	ldw	r3,-24(fp)
 800386c:	18c0010b 	ldhu	r3,4(r3)
						/* fill endpoint information structure */
						devtable[addr].epinfo[1].epAddr =
								data_ptr->descr.endpoint.bEndpointAddress;
						devtable[addr].epinfo[1].Attr =
								data_ptr->descr.endpoint.bmAttributes;
						devtable[addr].epinfo[1].MaxPktSize =
 8003870:	10c0008d 	sth	r3,2(r2)
								data_ptr->descr.endpoint.wMaxPacketSize;
						devtable[addr].epinfo[1].Interval =
 8003874:	e0fffe03 	ldbu	r3,-8(fp)
 8003878:	008200b4 	movhi	r2,2050
 800387c:	10adfe04 	addi	r2,r2,-18440
 8003880:	180690fa 	slli	r3,r3,3
 8003884:	10c5883a 	add	r2,r2,r3
 8003888:	10800017 	ldw	r2,0(r2)
 800388c:	10800204 	addi	r2,r2,8
								data_ptr->descr.endpoint.bInterval;
 8003890:	e0fffa17 	ldw	r3,-24(fp)
 8003894:	18c00183 	ldbu	r3,6(r3)
								data_ptr->descr.endpoint.bEndpointAddress;
						devtable[addr].epinfo[1].Attr =
								data_ptr->descr.endpoint.bmAttributes;
						devtable[addr].epinfo[1].MaxPktSize =
								data_ptr->descr.endpoint.wMaxPacketSize;
						devtable[addr].epinfo[1].Interval =
 8003898:	10c00105 	stb	r3,4(r2)
								data_ptr->descr.endpoint.bInterval;
						// devtable[ addr ].epinfo[ 1 ].rcvToggle = bmRCVTOG0;
						/* configure device */
						rcode = XferSetConf(addr, 0, confvalue); //set configuration
 800389c:	e0fffe03 	ldbu	r3,-8(fp)
 80038a0:	e0bffc43 	ldbu	r2,-15(fp)
 80038a4:	d8000415 	stw	zero,16(sp)
 80038a8:	d8000315 	stw	zero,12(sp)
 80038ac:	d8000215 	stw	zero,8(sp)
 80038b0:	d8000115 	stw	zero,4(sp)
 80038b4:	d8800015 	stw	r2,0(sp)
 80038b8:	01c00244 	movi	r7,9
 80038bc:	000d883a 	mov	r6,zero
 80038c0:	000b883a 	mov	r5,zero
 80038c4:	1809883a 	mov	r4,r3
 80038c8:	80046540 	call	8004654 <XferCtrlReq>
 80038cc:	e0bffc05 	stb	r2,-16(fp)
						if (rcode) {   //error handling
 80038d0:	e0bffc03 	ldbu	r2,-16(fp)
 80038d4:	10000226 	beq	r2,zero,80038e0 <HIDMProbe+0x364>
							return (FALSE);
 80038d8:	0005883a 	mov	r2,zero
 80038dc:	00002406 	br	8003970 <HIDMProbe+0x3f4>
						}
						rcode = XferSetProto(addr, 0, hid_device.interface,
 80038e0:	e0fffe03 	ldbu	r3,-8(fp)
 80038e4:	d0a6df43 	ldbu	r2,-25731(gp)
 80038e8:	10803fcc 	andi	r2,r2,255
 80038ec:	d8000415 	stw	zero,16(sp)
 80038f0:	d8000315 	stw	zero,12(sp)
 80038f4:	d8800215 	stw	r2,8(sp)
 80038f8:	d8000115 	stw	zero,4(sp)
 80038fc:	d8000015 	stw	zero,0(sp)
 8003900:	01c002c4 	movi	r7,11
 8003904:	01800844 	movi	r6,33
 8003908:	000b883a 	mov	r5,zero
 800390c:	1809883a 	mov	r4,r3
 8003910:	80046540 	call	8004654 <XferCtrlReq>
 8003914:	e0bffc05 	stb	r2,-16(fp)
								BOOT_PROTOCOL);
						if (rcode) {   //error handling
 8003918:	e0bffc03 	ldbu	r2,-16(fp)
 800391c:	10000226 	beq	r2,zero,8003928 <HIDMProbe+0x3ac>
							return (FALSE);
 8003920:	0005883a 	mov	r2,zero
 8003924:	00001206 	br	8003970 <HIDMProbe+0x3f4>
						} else {
							return (TRUE);
 8003928:	00800044 	movi	r2,1
 800392c:	00001006 	br	8003970 <HIDMProbe+0x3f4>
				hid_device.interface =
						data_ptr->descr.interface.bInterfaceNumber;
				hid_device.addr = addr;
				byte_ptr = byte_ptr + data_ptr->descr.config.bLength;
				data_ptr = (USB_DESCR*) byte_ptr;
				while (byte_ptr < bigbuf + total_length) {
 8003930:	e0fff90b 	ldhu	r3,-28(fp)
 8003934:	008200b4 	movhi	r2,2050
 8003938:	10adbe04 	addi	r2,r2,-18696
 800393c:	1885883a 	add	r2,r3,r2
 8003940:	e0fffb17 	ldw	r3,-20(fp)
 8003944:	18bf9f36 	bltu	r3,r2,80037c4 <__alt_data_end+0xfc0037c4>
			BYTE subclass = data_ptr->descr.interface.bInterfaceSubClass;
			BYTE protocol = data_ptr->descr.interface.bInterfaceProtocol;
			//printf("class %x, subclass %x, protocol %x,\n", class, subclass,
			//		protocol);
			//interface descriptor
			if (class == HID_INTF && subclass == BOOT_INTF_SUBCLASS
 8003948:	00000206 	br	8003954 <HIDMProbe+0x3d8>
						}
					}
				}   //while( byte_ptr....
			}   //if (Class matches
			else { //if class don't match; die on first interface. Not really correct
				return (FALSE);
 800394c:	0005883a 	mov	r2,zero
 8003950:	00000706 	br	8003970 <HIDMProbe+0x3f4>
	//printf("checking configuration value (length: %d): ",
	//		data_ptr->descr.config.wTotalLength);
	//for (int i = 0; i < data_ptr->descr.config.wTotalLength; i++) {
		//printf("%x ", (unsigned char) (bigbuf[i] & 0xff));
	//}
	while (byte_ptr < bigbuf + total_length) {
 8003954:	e0fff90b 	ldhu	r3,-28(fp)
 8003958:	008200b4 	movhi	r2,2050
 800395c:	10adbe04 	addi	r2,r2,-18696
 8003960:	1885883a 	add	r2,r3,r2
 8003964:	e0fffb17 	ldw	r3,-20(fp)
 8003968:	18bf4736 	bltu	r3,r2,8003688 <__alt_data_end+0xfc003688>
			else { //if class don't match; die on first interface. Not really correct
				return (FALSE);
			}
		} //else if( data_ptr->
	} // while( byte_ptr < &buf + total_length
	return (FALSE);
 800396c:	0005883a 	mov	r2,zero
}
 8003970:	e037883a 	mov	sp,fp
 8003974:	dfc00117 	ldw	ra,4(sp)
 8003978:	df000017 	ldw	fp,0(sp)
 800397c:	dec00204 	addi	sp,sp,8
 8003980:	f800283a 	ret

08003984 <HIDKProbe>:
/* HID Keyboard probe. Called from USB state machine.                           */
/* assumes configuration length is less than 256 bytes                          */
/* looks for Class:03, Subclass: 01, Protocol: 01 in interface descriptor       */
/* sets keyboard in boot protocol                                               */
/* assumes single configuration, single endpoint, and interface configuration 0 */
BOOL HIDKProbe(BYTE addr, DWORD flags) {
 8003984:	defff204 	addi	sp,sp,-56
 8003988:	dfc00d15 	stw	ra,52(sp)
 800398c:	df000c15 	stw	fp,48(sp)
 8003990:	df000c04 	addi	fp,sp,48
 8003994:	2005883a 	mov	r2,r4
 8003998:	e17fff15 	stw	r5,-4(fp)
 800399c:	e0bffe05 	stb	r2,-8(fp)
	BYTE tmpbyte;
	BYTE rcode;
	BYTE confvalue;
	WORD total_length;
	USB_DESCR* data_ptr = (USB_DESCR *) &bigbuf;
 80039a0:	008200b4 	movhi	r2,2050
 80039a4:	10adbe04 	addi	r2,r2,-18696
 80039a8:	e0bffa15 	stw	r2,-24(fp)
	BYTE* byte_ptr = bigbuf;
 80039ac:	008200b4 	movhi	r2,2050
 80039b0:	10adbe04 	addi	r2,r2,-18696
 80039b4:	e0bffb15 	stw	r2,-20(fp)
	rcode = XferGetConfDescr(addr, 0, CONF_DESCR_LEN, 0, bigbuf); //get configuration descriptor
 80039b8:	e0fffe03 	ldbu	r3,-8(fp)
 80039bc:	008200b4 	movhi	r2,2050
 80039c0:	10adbe04 	addi	r2,r2,-18696
 80039c4:	d8800415 	stw	r2,16(sp)
 80039c8:	00800244 	movi	r2,9
 80039cc:	d8800315 	stw	r2,12(sp)
 80039d0:	d8000215 	stw	zero,8(sp)
 80039d4:	00800084 	movi	r2,2
 80039d8:	d8800115 	stw	r2,4(sp)
 80039dc:	d8000015 	stw	zero,0(sp)
 80039e0:	01c00184 	movi	r7,6
 80039e4:	01802004 	movi	r6,128
 80039e8:	000b883a 	mov	r5,zero
 80039ec:	1809883a 	mov	r4,r3
 80039f0:	80046540 	call	8004654 <XferCtrlReq>
 80039f4:	e0bffc05 	stb	r2,-16(fp)
	if (rcode) {   //error handling           
 80039f8:	e0bffc03 	ldbu	r2,-16(fp)
 80039fc:	10000226 	beq	r2,zero,8003a08 <HIDKProbe+0x84>
		return (FALSE);
 8003a00:	0005883a 	mov	r2,zero
 8003a04:	0000dc06 	br	8003d78 <HIDKProbe+0x3f4>
	}
	if (data_ptr->descr.config.wTotalLength > 256) {
 8003a08:	e0bffa17 	ldw	r2,-24(fp)
 8003a0c:	1080008b 	ldhu	r2,2(r2)
 8003a10:	10bfffcc 	andi	r2,r2,65535
 8003a14:	10804070 	cmpltui	r2,r2,257
 8003a18:	1000031e 	bne	r2,zero,8003a28 <HIDKProbe+0xa4>
		total_length = 256;
 8003a1c:	00804004 	movi	r2,256
 8003a20:	e0bff90d 	sth	r2,-28(fp)
 8003a24:	00000306 	br	8003a34 <HIDKProbe+0xb0>
	} else {
		total_length = data_ptr->descr.config.wTotalLength;
 8003a28:	e0bffa17 	ldw	r2,-24(fp)
 8003a2c:	1080008b 	ldhu	r2,2(r2)
 8003a30:	e0bff90d 	sth	r2,-28(fp)
	}
	rcode = XferGetConfDescr(addr, 0, total_length, 0, bigbuf); //get the whole configuration
 8003a34:	e13ffe03 	ldbu	r4,-8(fp)
 8003a38:	e0fff90b 	ldhu	r3,-28(fp)
 8003a3c:	008200b4 	movhi	r2,2050
 8003a40:	10adbe04 	addi	r2,r2,-18696
 8003a44:	d8800415 	stw	r2,16(sp)
 8003a48:	d8c00315 	stw	r3,12(sp)
 8003a4c:	d8000215 	stw	zero,8(sp)
 8003a50:	00800084 	movi	r2,2
 8003a54:	d8800115 	stw	r2,4(sp)
 8003a58:	d8000015 	stw	zero,0(sp)
 8003a5c:	01c00184 	movi	r7,6
 8003a60:	01802004 	movi	r6,128
 8003a64:	000b883a 	mov	r5,zero
 8003a68:	80046540 	call	8004654 <XferCtrlReq>
 8003a6c:	e0bffc05 	stb	r2,-16(fp)
	if (rcode) {   //error handling
 8003a70:	e0bffc03 	ldbu	r2,-16(fp)
 8003a74:	10000226 	beq	r2,zero,8003a80 <HIDKProbe+0xfc>
		return (FALSE);
 8003a78:	0005883a 	mov	r2,zero
 8003a7c:	0000be06 	br	8003d78 <HIDKProbe+0x3f4>
	}
	confvalue = data_ptr->descr.config.bConfigurationValue; //save configuration value to use later
 8003a80:	e0bffa17 	ldw	r2,-24(fp)
 8003a84:	10800143 	ldbu	r2,5(r2)
 8003a88:	e0bffc45 	stb	r2,-15(fp)
	while (byte_ptr < bigbuf + total_length) {             //parse configuration
 8003a8c:	0000b306 	br	8003d5c <HIDKProbe+0x3d8>
		if (data_ptr->descr.config.bDescriptorType != USB_DESCRIPTOR_INTERFACE) { //skip to the next descriptor
 8003a90:	e0bffa17 	ldw	r2,-24(fp)
 8003a94:	10800043 	ldbu	r2,1(r2)
 8003a98:	10803fcc 	andi	r2,r2,255
 8003a9c:	10800120 	cmpeqi	r2,r2,4
 8003aa0:	1000091e 	bne	r2,zero,8003ac8 <HIDKProbe+0x144>
			byte_ptr = byte_ptr + data_ptr->descr.config.bLength;
 8003aa4:	e0bffa17 	ldw	r2,-24(fp)
 8003aa8:	10800003 	ldbu	r2,0(r2)
 8003aac:	10803fcc 	andi	r2,r2,255
 8003ab0:	e0fffb17 	ldw	r3,-20(fp)
 8003ab4:	1885883a 	add	r2,r3,r2
 8003ab8:	e0bffb15 	stw	r2,-20(fp)
			data_ptr = (USB_DESCR*) byte_ptr;
 8003abc:	e0bffb17 	ldw	r2,-20(fp)
 8003ac0:	e0bffa15 	stw	r2,-24(fp)
 8003ac4:	0000a506 	br	8003d5c <HIDKProbe+0x3d8>
		} // if( data_ptr->descr.config.bDescriptorType != USB_DESCRIPTOR_INTERFACE
		else {
			//printf("starting interface parsing at byte location %d\n",
			//		data_ptr->descr.config.bLength);
			BYTE class = data_ptr->descr.interface.bInterfaceClass;
 8003ac8:	e0bffa17 	ldw	r2,-24(fp)
 8003acc:	10800143 	ldbu	r2,5(r2)
 8003ad0:	e0bffc85 	stb	r2,-14(fp)
			BYTE subclass = data_ptr->descr.interface.bInterfaceSubClass;
 8003ad4:	e0bffa17 	ldw	r2,-24(fp)
 8003ad8:	10800183 	ldbu	r2,6(r2)
 8003adc:	e0bffcc5 	stb	r2,-13(fp)
			BYTE protocol = data_ptr->descr.interface.bInterfaceProtocol;
 8003ae0:	e0bffa17 	ldw	r2,-24(fp)
 8003ae4:	108001c3 	ldbu	r2,7(r2)
 8003ae8:	e0bffd05 	stb	r2,-12(fp)
			//printf("class %x, subclass %x, protocol %x,\n", class, subclass,
			//		protocol);
			//interface descriptor
			if (class == HID_INTF && subclass == BOOT_INTF_SUBCLASS
 8003aec:	e0bffc83 	ldbu	r2,-14(fp)
 8003af0:	108000d8 	cmpnei	r2,r2,3
 8003af4:	1000971e 	bne	r2,zero,8003d54 <HIDKProbe+0x3d0>
 8003af8:	e0bffcc3 	ldbu	r2,-13(fp)
 8003afc:	10800058 	cmpnei	r2,r2,1
 8003b00:	1000941e 	bne	r2,zero,8003d54 <HIDKProbe+0x3d0>
					&& protocol == HID_PROTOCOL_KEYBOARD) {
 8003b04:	e0bffd03 	ldbu	r2,-12(fp)
 8003b08:	10800058 	cmpnei	r2,r2,1
 8003b0c:	1000911e 	bne	r2,zero,8003d54 <HIDKProbe+0x3d0>
				//detected a keyboard
				devtable[addr].devclass = HID_K;             //fill device class
 8003b10:	e0fffe03 	ldbu	r3,-8(fp)
 8003b14:	008200b4 	movhi	r2,2050
 8003b18:	10adfe04 	addi	r2,r2,-18440
 8003b1c:	180690fa 	slli	r3,r3,3
 8003b20:	10c5883a 	add	r2,r2,r3
 8003b24:	10800104 	addi	r2,r2,4
 8003b28:	00c00044 	movi	r3,1
 8003b2c:	10c00005 	stb	r3,0(r2)
				tmpbyte = devtable[addr].epinfo->MaxPktSize; //save max.packet size
 8003b30:	e0fffe03 	ldbu	r3,-8(fp)
 8003b34:	008200b4 	movhi	r2,2050
 8003b38:	10adfe04 	addi	r2,r2,-18440
 8003b3c:	180690fa 	slli	r3,r3,3
 8003b40:	10c5883a 	add	r2,r2,r3
 8003b44:	10800017 	ldw	r2,0(r2)
 8003b48:	1080008b 	ldhu	r2,2(r2)
 8003b4c:	e0bffd45 	stb	r2,-11(fp)
				HID_init();                         //initialize data structures
 8003b50:	8003d8c0 	call	8003d8c <HID_init>
				devtable[addr].epinfo = hid_ep; //switch endpoint information structure
 8003b54:	e0fffe03 	ldbu	r3,-8(fp)
 8003b58:	008200b4 	movhi	r2,2050
 8003b5c:	10adfe04 	addi	r2,r2,-18440
 8003b60:	180690fa 	slli	r3,r3,3
 8003b64:	10c7883a 	add	r3,r2,r3
 8003b68:	008200b4 	movhi	r2,2050
 8003b6c:	10adaa04 	addi	r2,r2,-18776
 8003b70:	18800015 	stw	r2,0(r3)
				devtable[addr].epinfo[0].MaxPktSize = tmpbyte; //fill in max.packet size
 8003b74:	e0fffe03 	ldbu	r3,-8(fp)
 8003b78:	008200b4 	movhi	r2,2050
 8003b7c:	10adfe04 	addi	r2,r2,-18440
 8003b80:	180690fa 	slli	r3,r3,3
 8003b84:	10c5883a 	add	r2,r2,r3
 8003b88:	10800017 	ldw	r2,0(r2)
 8003b8c:	e0fffd43 	ldbu	r3,-11(fp)
 8003b90:	10c0008d 	sth	r3,2(r2)
				hid_device.interface =
						data_ptr->descr.interface.bInterfaceNumber; //fill in interface number to be used in HID requests
 8003b94:	e0bffa17 	ldw	r2,-24(fp)
 8003b98:	10800083 	ldbu	r2,2(r2)
				devtable[addr].devclass = HID_K;             //fill device class
				tmpbyte = devtable[addr].epinfo->MaxPktSize; //save max.packet size
				HID_init();                         //initialize data structures
				devtable[addr].epinfo = hid_ep; //switch endpoint information structure
				devtable[addr].epinfo[0].MaxPktSize = tmpbyte; //fill in max.packet size
				hid_device.interface =
 8003b9c:	d0a6df45 	stb	r2,-25731(gp)
						data_ptr->descr.interface.bInterfaceNumber; //fill in interface number to be used in HID requests
				hid_device.addr = addr;                        //fill in address
 8003ba0:	e0bffe03 	ldbu	r2,-8(fp)
 8003ba4:	d0a6df05 	stb	r2,-25732(gp)
				byte_ptr = byte_ptr + data_ptr->descr.config.bLength; //skip to the next descriptor
 8003ba8:	e0bffa17 	ldw	r2,-24(fp)
 8003bac:	10800003 	ldbu	r2,0(r2)
 8003bb0:	10803fcc 	andi	r2,r2,255
 8003bb4:	e0fffb17 	ldw	r3,-20(fp)
 8003bb8:	1885883a 	add	r2,r3,r2
 8003bbc:	e0bffb15 	stw	r2,-20(fp)
				data_ptr = (USB_DESCR*) byte_ptr;
 8003bc0:	e0bffb17 	ldw	r2,-20(fp)
 8003bc4:	e0bffa15 	stw	r2,-24(fp)
				while (byte_ptr < bigbuf + total_length) {
 8003bc8:	00005b06 	br	8003d38 <HIDKProbe+0x3b4>
					if (data_ptr->descr.config.bDescriptorType
 8003bcc:	e0bffa17 	ldw	r2,-24(fp)
 8003bd0:	10800043 	ldbu	r2,1(r2)
 8003bd4:	10803fcc 	andi	r2,r2,255
 8003bd8:	10800160 	cmpeqi	r2,r2,5
 8003bdc:	1000091e 	bne	r2,zero,8003c04 <HIDKProbe+0x280>
							!= USB_DESCRIPTOR_ENDPOINT) { //skip to endpoint descriptor
						byte_ptr = byte_ptr + data_ptr->descr.config.bLength;
 8003be0:	e0bffa17 	ldw	r2,-24(fp)
 8003be4:	10800003 	ldbu	r2,0(r2)
 8003be8:	10803fcc 	andi	r2,r2,255
 8003bec:	e0fffb17 	ldw	r3,-20(fp)
 8003bf0:	1885883a 	add	r2,r3,r2
 8003bf4:	e0bffb15 	stw	r2,-20(fp)
						data_ptr = (USB_DESCR*) byte_ptr;
 8003bf8:	e0bffb17 	ldw	r2,-20(fp)
 8003bfc:	e0bffa15 	stw	r2,-24(fp)
 8003c00:	00004d06 	br	8003d38 <HIDKProbe+0x3b4>
					} else {
						/* fill endpoint information structure */
						devtable[addr].epinfo[1].epAddr =
 8003c04:	e0fffe03 	ldbu	r3,-8(fp)
 8003c08:	008200b4 	movhi	r2,2050
 8003c0c:	10adfe04 	addi	r2,r2,-18440
 8003c10:	180690fa 	slli	r3,r3,3
 8003c14:	10c5883a 	add	r2,r2,r3
 8003c18:	10800017 	ldw	r2,0(r2)
 8003c1c:	10800204 	addi	r2,r2,8
								data_ptr->descr.endpoint.bEndpointAddress;
 8003c20:	e0fffa17 	ldw	r3,-24(fp)
 8003c24:	18c00083 	ldbu	r3,2(r3)
							!= USB_DESCRIPTOR_ENDPOINT) { //skip to endpoint descriptor
						byte_ptr = byte_ptr + data_ptr->descr.config.bLength;
						data_ptr = (USB_DESCR*) byte_ptr;
					} else {
						/* fill endpoint information structure */
						devtable[addr].epinfo[1].epAddr =
 8003c28:	10c00005 	stb	r3,0(r2)
								data_ptr->descr.endpoint.bEndpointAddress;
						devtable[addr].epinfo[1].Attr =
 8003c2c:	e0fffe03 	ldbu	r3,-8(fp)
 8003c30:	008200b4 	movhi	r2,2050
 8003c34:	10adfe04 	addi	r2,r2,-18440
 8003c38:	180690fa 	slli	r3,r3,3
 8003c3c:	10c5883a 	add	r2,r2,r3
 8003c40:	10800017 	ldw	r2,0(r2)
 8003c44:	10800204 	addi	r2,r2,8
								data_ptr->descr.endpoint.bmAttributes;
 8003c48:	e0fffa17 	ldw	r3,-24(fp)
 8003c4c:	18c000c3 	ldbu	r3,3(r3)
						data_ptr = (USB_DESCR*) byte_ptr;
					} else {
						/* fill endpoint information structure */
						devtable[addr].epinfo[1].epAddr =
								data_ptr->descr.endpoint.bEndpointAddress;
						devtable[addr].epinfo[1].Attr =
 8003c50:	10c00045 	stb	r3,1(r2)
								data_ptr->descr.endpoint.bmAttributes;
						devtable[addr].epinfo[1].MaxPktSize =
 8003c54:	e0fffe03 	ldbu	r3,-8(fp)
 8003c58:	008200b4 	movhi	r2,2050
 8003c5c:	10adfe04 	addi	r2,r2,-18440
 8003c60:	180690fa 	slli	r3,r3,3
 8003c64:	10c5883a 	add	r2,r2,r3
 8003c68:	10800017 	ldw	r2,0(r2)
 8003c6c:	10800204 	addi	r2,r2,8
								data_ptr->descr.endpoint.wMaxPacketSize;
 8003c70:	e0fffa17 	ldw	r3,-24(fp)
 8003c74:	18c0010b 	ldhu	r3,4(r3)
						/* fill endpoint information structure */
						devtable[addr].epinfo[1].epAddr =
								data_ptr->descr.endpoint.bEndpointAddress;
						devtable[addr].epinfo[1].Attr =
								data_ptr->descr.endpoint.bmAttributes;
						devtable[addr].epinfo[1].MaxPktSize =
 8003c78:	10c0008d 	sth	r3,2(r2)
								data_ptr->descr.endpoint.wMaxPacketSize;
						devtable[addr].epinfo[1].Interval =
 8003c7c:	e0fffe03 	ldbu	r3,-8(fp)
 8003c80:	008200b4 	movhi	r2,2050
 8003c84:	10adfe04 	addi	r2,r2,-18440
 8003c88:	180690fa 	slli	r3,r3,3
 8003c8c:	10c5883a 	add	r2,r2,r3
 8003c90:	10800017 	ldw	r2,0(r2)
 8003c94:	10800204 	addi	r2,r2,8
								data_ptr->descr.endpoint.bInterval;
 8003c98:	e0fffa17 	ldw	r3,-24(fp)
 8003c9c:	18c00183 	ldbu	r3,6(r3)
								data_ptr->descr.endpoint.bEndpointAddress;
						devtable[addr].epinfo[1].Attr =
								data_ptr->descr.endpoint.bmAttributes;
						devtable[addr].epinfo[1].MaxPktSize =
								data_ptr->descr.endpoint.wMaxPacketSize;
						devtable[addr].epinfo[1].Interval =
 8003ca0:	10c00105 	stb	r3,4(r2)
								data_ptr->descr.endpoint.bInterval;
						/* configure device */
						rcode = XferSetConf(addr, 0, confvalue); //set configuration
 8003ca4:	e0fffe03 	ldbu	r3,-8(fp)
 8003ca8:	e0bffc43 	ldbu	r2,-15(fp)
 8003cac:	d8000415 	stw	zero,16(sp)
 8003cb0:	d8000315 	stw	zero,12(sp)
 8003cb4:	d8000215 	stw	zero,8(sp)
 8003cb8:	d8000115 	stw	zero,4(sp)
 8003cbc:	d8800015 	stw	r2,0(sp)
 8003cc0:	01c00244 	movi	r7,9
 8003cc4:	000d883a 	mov	r6,zero
 8003cc8:	000b883a 	mov	r5,zero
 8003ccc:	1809883a 	mov	r4,r3
 8003cd0:	80046540 	call	8004654 <XferCtrlReq>
 8003cd4:	e0bffc05 	stb	r2,-16(fp)
						if (rcode) {   //error handling
 8003cd8:	e0bffc03 	ldbu	r2,-16(fp)
 8003cdc:	10000226 	beq	r2,zero,8003ce8 <HIDKProbe+0x364>
							return (FALSE);
 8003ce0:	0005883a 	mov	r2,zero
 8003ce4:	00002406 	br	8003d78 <HIDKProbe+0x3f4>
						}
						rcode = XferSetProto(addr, 0, hid_device.interface,
 8003ce8:	e0fffe03 	ldbu	r3,-8(fp)
 8003cec:	d0a6df43 	ldbu	r2,-25731(gp)
 8003cf0:	10803fcc 	andi	r2,r2,255
 8003cf4:	d8000415 	stw	zero,16(sp)
 8003cf8:	d8000315 	stw	zero,12(sp)
 8003cfc:	d8800215 	stw	r2,8(sp)
 8003d00:	d8000115 	stw	zero,4(sp)
 8003d04:	d8000015 	stw	zero,0(sp)
 8003d08:	01c002c4 	movi	r7,11
 8003d0c:	01800844 	movi	r6,33
 8003d10:	000b883a 	mov	r5,zero
 8003d14:	1809883a 	mov	r4,r3
 8003d18:	80046540 	call	8004654 <XferCtrlReq>
 8003d1c:	e0bffc05 	stb	r2,-16(fp)
								BOOT_PROTOCOL);
						if (rcode) {   //error handling
 8003d20:	e0bffc03 	ldbu	r2,-16(fp)
 8003d24:	10000226 	beq	r2,zero,8003d30 <HIDKProbe+0x3ac>
							return (FALSE);
 8003d28:	0005883a 	mov	r2,zero
 8003d2c:	00001206 	br	8003d78 <HIDKProbe+0x3f4>
						} else {
							return (TRUE);
 8003d30:	00800044 	movi	r2,1
 8003d34:	00001006 	br	8003d78 <HIDKProbe+0x3f4>
				hid_device.interface =
						data_ptr->descr.interface.bInterfaceNumber; //fill in interface number to be used in HID requests
				hid_device.addr = addr;                        //fill in address
				byte_ptr = byte_ptr + data_ptr->descr.config.bLength; //skip to the next descriptor
				data_ptr = (USB_DESCR*) byte_ptr;
				while (byte_ptr < bigbuf + total_length) {
 8003d38:	e0fff90b 	ldhu	r3,-28(fp)
 8003d3c:	008200b4 	movhi	r2,2050
 8003d40:	10adbe04 	addi	r2,r2,-18696
 8003d44:	1885883a 	add	r2,r3,r2
 8003d48:	e0fffb17 	ldw	r3,-20(fp)
 8003d4c:	18bf9f36 	bltu	r3,r2,8003bcc <__alt_data_end+0xfc003bcc>
			BYTE subclass = data_ptr->descr.interface.bInterfaceSubClass;
			BYTE protocol = data_ptr->descr.interface.bInterfaceProtocol;
			//printf("class %x, subclass %x, protocol %x,\n", class, subclass,
			//		protocol);
			//interface descriptor
			if (class == HID_INTF && subclass == BOOT_INTF_SUBCLASS
 8003d50:	00000206 	br	8003d5c <HIDKProbe+0x3d8>
						}
					}
				}   //while( byte_ptr....
			}   //if (Class matches
			else { //if class don't match; stop processing after first interface. Not really correct
				return (FALSE);
 8003d54:	0005883a 	mov	r2,zero
 8003d58:	00000706 	br	8003d78 <HIDKProbe+0x3f4>
	rcode = XferGetConfDescr(addr, 0, total_length, 0, bigbuf); //get the whole configuration
	if (rcode) {   //error handling
		return (FALSE);
	}
	confvalue = data_ptr->descr.config.bConfigurationValue; //save configuration value to use later
	while (byte_ptr < bigbuf + total_length) {             //parse configuration
 8003d5c:	e0fff90b 	ldhu	r3,-28(fp)
 8003d60:	008200b4 	movhi	r2,2050
 8003d64:	10adbe04 	addi	r2,r2,-18696
 8003d68:	1885883a 	add	r2,r3,r2
 8003d6c:	e0fffb17 	ldw	r3,-20(fp)
 8003d70:	18bf4736 	bltu	r3,r2,8003a90 <__alt_data_end+0xfc003a90>
			else { //if class don't match; stop processing after first interface. Not really correct
				return (FALSE);
			}
		} //else if( data_ptr->
	} // while( byte_ptr < &buf + total_length
	return (FALSE);
 8003d74:	0005883a 	mov	r2,zero
}
 8003d78:	e037883a 	mov	sp,fp
 8003d7c:	dfc00117 	ldw	ra,4(sp)
 8003d80:	df000017 	ldw	fp,0(sp)
 8003d84:	dec00204 	addi	sp,sp,8
 8003d88:	f800283a 	ret

08003d8c <HID_init>:
/* HID data structures initialization */
void HID_init(void) {
 8003d8c:	deffff04 	addi	sp,sp,-4
 8003d90:	df000015 	stw	fp,0(sp)
 8003d94:	d839883a 	mov	fp,sp
	hid_ep[1].sndToggle = bmSNDTOG0;
 8003d98:	008200b4 	movhi	r2,2050
 8003d9c:	10adaa04 	addi	r2,r2,-18776
 8003da0:	00c01004 	movi	r3,64
 8003da4:	10c00345 	stb	r3,13(r2)
	hid_ep[1].rcvToggle = bmRCVTOG0;
 8003da8:	008200b4 	movhi	r2,2050
 8003dac:	10adaa04 	addi	r2,r2,-18776
 8003db0:	00c00404 	movi	r3,16
 8003db4:	10c00385 	stb	r3,14(r2)
}
 8003db8:	0001883a 	nop
 8003dbc:	e037883a 	mov	sp,fp
 8003dc0:	df000017 	ldw	fp,0(sp)
 8003dc4:	dec00104 	addi	sp,sp,4
 8003dc8:	f800283a 	ret

08003dcc <mousePoll>:
/* poll boot mouse */
BYTE mousePoll(BOOT_MOUSE_REPORT* buf) {
 8003dcc:	defffb04 	addi	sp,sp,-20
 8003dd0:	dfc00415 	stw	ra,16(sp)
 8003dd4:	df000315 	stw	fp,12(sp)
 8003dd8:	df000304 	addi	fp,sp,12
 8003ddc:	e13fff15 	stw	r4,-4(fp)
	BYTE rcode;
	MAXreg_wr( rPERADDR, hid_device.addr);    //set peripheral address
 8003de0:	d0a6df03 	ldbu	r2,-25732(gp)
 8003de4:	10803fcc 	andi	r2,r2,255
 8003de8:	100b883a 	mov	r5,r2
 8003dec:	01003804 	movi	r4,224
 8003df0:	8003fa80 	call	8003fa8 <MAXreg_wr>
	rcode = XferInTransfer(hid_device.addr, 1, 8, (BYTE*) buf,
 8003df4:	d0a6df03 	ldbu	r2,-25732(gp)
 8003df8:	11003fcc 	andi	r4,r2,255
			devtable[hid_device.addr].epinfo[1].MaxPktSize);
 8003dfc:	d0a6df03 	ldbu	r2,-25732(gp)
 8003e00:	10c03fcc 	andi	r3,r2,255
 8003e04:	008200b4 	movhi	r2,2050
 8003e08:	10adfe04 	addi	r2,r2,-18440
 8003e0c:	180690fa 	slli	r3,r3,3
 8003e10:	10c5883a 	add	r2,r2,r3
 8003e14:	10800017 	ldw	r2,0(r2)
 8003e18:	10800204 	addi	r2,r2,8
 8003e1c:	1080008b 	ldhu	r2,2(r2)
}
/* poll boot mouse */
BYTE mousePoll(BOOT_MOUSE_REPORT* buf) {
	BYTE rcode;
	MAXreg_wr( rPERADDR, hid_device.addr);    //set peripheral address
	rcode = XferInTransfer(hid_device.addr, 1, 8, (BYTE*) buf,
 8003e20:	10803fcc 	andi	r2,r2,255
 8003e24:	d8800015 	stw	r2,0(sp)
 8003e28:	e1ffff17 	ldw	r7,-4(fp)
 8003e2c:	01800204 	movi	r6,8
 8003e30:	01400044 	movi	r5,1
 8003e34:	8004a5c0 	call	8004a5c <XferInTransfer>
 8003e38:	e0bffe05 	stb	r2,-8(fp)
			devtable[hid_device.addr].epinfo[1].MaxPktSize);
	return (rcode);
 8003e3c:	e0bffe03 	ldbu	r2,-8(fp)
}
 8003e40:	e037883a 	mov	sp,fp
 8003e44:	dfc00117 	ldw	ra,4(sp)
 8003e48:	df000017 	ldw	fp,0(sp)
 8003e4c:	dec00204 	addi	sp,sp,8
 8003e50:	f800283a 	ret

08003e54 <kbdPoll>:
/* poll boot keyboard */
BYTE kbdPoll(BOOT_KBD_REPORT* buf) {
 8003e54:	defffb04 	addi	sp,sp,-20
 8003e58:	dfc00415 	stw	ra,16(sp)
 8003e5c:	df000315 	stw	fp,12(sp)
 8003e60:	df000304 	addi	fp,sp,12
 8003e64:	e13fff15 	stw	r4,-4(fp)
	BYTE rcode;
	MAXreg_wr( rPERADDR, hid_device.addr);    //set peripheral address
 8003e68:	d0a6df03 	ldbu	r2,-25732(gp)
 8003e6c:	10803fcc 	andi	r2,r2,255
 8003e70:	100b883a 	mov	r5,r2
 8003e74:	01003804 	movi	r4,224
 8003e78:	8003fa80 	call	8003fa8 <MAXreg_wr>
	rcode = XferInTransfer(hid_device.addr, 1, 8, (BYTE*) buf,
 8003e7c:	d0a6df03 	ldbu	r2,-25732(gp)
 8003e80:	11003fcc 	andi	r4,r2,255
			devtable[hid_device.addr].epinfo[1].MaxPktSize);
 8003e84:	d0a6df03 	ldbu	r2,-25732(gp)
 8003e88:	10c03fcc 	andi	r3,r2,255
 8003e8c:	008200b4 	movhi	r2,2050
 8003e90:	10adfe04 	addi	r2,r2,-18440
 8003e94:	180690fa 	slli	r3,r3,3
 8003e98:	10c5883a 	add	r2,r2,r3
 8003e9c:	10800017 	ldw	r2,0(r2)
 8003ea0:	10800204 	addi	r2,r2,8
 8003ea4:	1080008b 	ldhu	r2,2(r2)
}
/* poll boot keyboard */
BYTE kbdPoll(BOOT_KBD_REPORT* buf) {
	BYTE rcode;
	MAXreg_wr( rPERADDR, hid_device.addr);    //set peripheral address
	rcode = XferInTransfer(hid_device.addr, 1, 8, (BYTE*) buf,
 8003ea8:	10803fcc 	andi	r2,r2,255
 8003eac:	d8800015 	stw	r2,0(sp)
 8003eb0:	e1ffff17 	ldw	r7,-4(fp)
 8003eb4:	01800204 	movi	r6,8
 8003eb8:	01400044 	movi	r5,1
 8003ebc:	8004a5c0 	call	8004a5c <XferInTransfer>
 8003ec0:	e0bffe05 	stb	r2,-8(fp)
			devtable[hid_device.addr].epinfo[1].MaxPktSize);
	return (rcode);
 8003ec4:	e0bffe03 	ldbu	r2,-8(fp)
}
 8003ec8:	e037883a 	mov	sp,fp
 8003ecc:	dfc00117 	ldw	ra,4(sp)
 8003ed0:	df000017 	ldw	fp,0(sp)
 8003ed4:	dec00204 	addi	sp,sp,8
 8003ed8:	f800283a 	ret

08003edc <HIDMEventHandler>:
BOOL HIDMEventHandler(BYTE address, BYTE event, void *data, DWORD size) {
 8003edc:	defffb04 	addi	sp,sp,-20
 8003ee0:	df000415 	stw	fp,16(sp)
 8003ee4:	df000404 	addi	fp,sp,16
 8003ee8:	2007883a 	mov	r3,r4
 8003eec:	2805883a 	mov	r2,r5
 8003ef0:	e1bffe15 	stw	r6,-8(fp)
 8003ef4:	e1ffff15 	stw	r7,-4(fp)
 8003ef8:	e0fffc05 	stb	r3,-16(fp)
 8003efc:	e0bffd05 	stb	r2,-12(fp)
	return (FALSE);
 8003f00:	0005883a 	mov	r2,zero
}
 8003f04:	e037883a 	mov	sp,fp
 8003f08:	df000017 	ldw	fp,0(sp)
 8003f0c:	dec00104 	addi	sp,sp,4
 8003f10:	f800283a 	ret

08003f14 <HIDKEventHandler>:
BOOL HIDKEventHandler(BYTE address, BYTE event, void *data, DWORD size) {
 8003f14:	defffb04 	addi	sp,sp,-20
 8003f18:	df000415 	stw	fp,16(sp)
 8003f1c:	df000404 	addi	fp,sp,16
 8003f20:	2007883a 	mov	r3,r4
 8003f24:	2805883a 	mov	r2,r5
 8003f28:	e1bffe15 	stw	r6,-8(fp)
 8003f2c:	e1ffff15 	stw	r7,-4(fp)
 8003f30:	e0fffc05 	stb	r3,-16(fp)
 8003f34:	e0bffd05 	stb	r2,-12(fp)
	return (FALSE);
 8003f38:	0005883a 	mov	r2,zero
}
 8003f3c:	e037883a 	mov	sp,fp
 8003f40:	df000017 	ldw	fp,0(sp)
 8003f44:	dec00104 	addi	sp,sp,4
 8003f48:	f800283a 	ret

08003f4c <SPI_init>:
//variables and data structures
//External variables
extern BYTE usb_task_state;

/* Functions    */
void SPI_init(BYTE sync_mode, BYTE bus_mode, BYTE smp_phase) {
 8003f4c:	defffc04 	addi	sp,sp,-16
 8003f50:	df000315 	stw	fp,12(sp)
 8003f54:	df000304 	addi	fp,sp,12
 8003f58:	2807883a 	mov	r3,r5
 8003f5c:	3005883a 	mov	r2,r6
 8003f60:	e13ffd05 	stb	r4,-12(fp)
 8003f64:	e0fffe05 	stb	r3,-8(fp)
 8003f68:	e0bfff05 	stb	r2,-4(fp)
	//Don't need to initialize SPI port, already ready to go with BSP
}
 8003f6c:	0001883a 	nop
 8003f70:	e037883a 	mov	sp,fp
 8003f74:	df000017 	ldw	fp,0(sp)
 8003f78:	dec00104 	addi	sp,sp,4
 8003f7c:	f800283a 	ret

08003f80 <SPI_wr>:

//writes single byte to MAX3421E via SPI, simultanously reads status register and returns it
BYTE SPI_wr(BYTE data) {
 8003f80:	defffe04 	addi	sp,sp,-8
 8003f84:	df000115 	stw	fp,4(sp)
 8003f88:	df000104 	addi	fp,sp,4
 8003f8c:	2005883a 	mov	r2,r4
 8003f90:	e0bfff05 	stb	r2,-4(fp)
	//This function is never used by the code, so you do not need to fill it in
}
 8003f94:	0001883a 	nop
 8003f98:	e037883a 	mov	sp,fp
 8003f9c:	df000017 	ldw	fp,0(sp)
 8003fa0:	dec00104 	addi	sp,sp,4
 8003fa4:	f800283a 	ret

08003fa8 <MAXreg_wr>:
//writes register to MAX3421E via SPI
void MAXreg_wr(BYTE reg, BYTE val) {
 8003fa8:	defff704 	addi	sp,sp,-36
 8003fac:	dfc00815 	stw	ra,32(sp)
 8003fb0:	df000715 	stw	fp,28(sp)
 8003fb4:	df000704 	addi	fp,sp,28
 8003fb8:	2007883a 	mov	r3,r4
 8003fbc:	2805883a 	mov	r2,r5
 8003fc0:	e0fffe05 	stb	r3,-8(fp)
 8003fc4:	e0bfff05 	stb	r2,-4(fp)
	//read return code from SPI peripheral (see Intel documentation) 
	//if return code < 0 print an error
	//deselect MAX3421E (may not be necessary if you are using SPI peripheral)
	//printf("MAXreg_wr\n");

	alt_u8 write_data = reg + 2;
 8003fc8:	e0bffe03 	ldbu	r2,-8(fp)
 8003fcc:	10800084 	addi	r2,r2,2
 8003fd0:	e0bffd05 	stb	r2,-12(fp)
	alt_avalon_spi_command(SPI_0_BASE, 0, 1, &write_data, 0, NULL, ALT_AVALON_SPI_COMMAND_MERGE);
 8003fd4:	e0fffd04 	addi	r3,fp,-12
 8003fd8:	00800044 	movi	r2,1
 8003fdc:	d8800215 	stw	r2,8(sp)
 8003fe0:	d8000115 	stw	zero,4(sp)
 8003fe4:	d8000015 	stw	zero,0(sp)
 8003fe8:	180f883a 	mov	r7,r3
 8003fec:	01800044 	movi	r6,1
 8003ff0:	000b883a 	mov	r5,zero
 8003ff4:	01003004 	movi	r4,192
 8003ff8:	80163c80 	call	80163c8 <alt_avalon_spi_command>
	int ret = alt_avalon_spi_command(SPI_0_BASE, 0, 1, &val, 0, NULL, 0);
 8003ffc:	e0bfff04 	addi	r2,fp,-4
 8004000:	d8000215 	stw	zero,8(sp)
 8004004:	d8000115 	stw	zero,4(sp)
 8004008:	d8000015 	stw	zero,0(sp)
 800400c:	100f883a 	mov	r7,r2
 8004010:	01800044 	movi	r6,1
 8004014:	000b883a 	mov	r5,zero
 8004018:	01003004 	movi	r4,192
 800401c:	80163c80 	call	80163c8 <alt_avalon_spi_command>
 8004020:	e0bffc15 	stw	r2,-16(fp)
	if (ret < 0){
 8004024:	e0bffc17 	ldw	r2,-16(fp)
 8004028:	1000030e 	bge	r2,zero,8004038 <MAXreg_wr+0x90>
		printf("Error!!!\n");
 800402c:	01020074 	movhi	r4,2049
 8004030:	211e8504 	addi	r4,r4,31252
 8004034:	800a6700 	call	800a670 <puts>
	}
}
 8004038:	0001883a 	nop
 800403c:	e037883a 	mov	sp,fp
 8004040:	dfc00117 	ldw	ra,4(sp)
 8004044:	df000017 	ldw	fp,0(sp)
 8004048:	dec00204 	addi	sp,sp,8
 800404c:	f800283a 	ret

08004050 <MAXbytes_wr>:
//multiple-byte write
//returns a pointer to a memory position after last written
BYTE* MAXbytes_wr(BYTE reg, BYTE nbytes, BYTE* data) {
 8004050:	defff604 	addi	sp,sp,-40
 8004054:	dfc00915 	stw	ra,36(sp)
 8004058:	df000815 	stw	fp,32(sp)
 800405c:	df000804 	addi	fp,sp,32
 8004060:	2007883a 	mov	r3,r4
 8004064:	2805883a 	mov	r2,r5
 8004068:	e1bfff15 	stw	r6,-4(fp)
 800406c:	e0fffd05 	stb	r3,-12(fp)
 8004070:	e0bffe05 	stb	r2,-8(fp)
	//read return code from SPI peripheral (see Intel documentation) 
	//if return code < 0  print an error
	//deselect MAX3421E (may not be necessary if you are using SPI peripheral)
	//return (data + nbytes);
	//printf("MAXbytes_wr\n");
	alt_u8 write_data = reg + 2;
 8004074:	e0bffd03 	ldbu	r2,-12(fp)
 8004078:	10800084 	addi	r2,r2,2
 800407c:	e0bffc05 	stb	r2,-16(fp)
	alt_avalon_spi_command(SPI_0_BASE, 0, 1, &write_data, 0, NULL, ALT_AVALON_SPI_COMMAND_MERGE);
 8004080:	e0fffc04 	addi	r3,fp,-16
 8004084:	00800044 	movi	r2,1
 8004088:	d8800215 	stw	r2,8(sp)
 800408c:	d8000115 	stw	zero,4(sp)
 8004090:	d8000015 	stw	zero,0(sp)
 8004094:	180f883a 	mov	r7,r3
 8004098:	01800044 	movi	r6,1
 800409c:	000b883a 	mov	r5,zero
 80040a0:	01003004 	movi	r4,192
 80040a4:	80163c80 	call	80163c8 <alt_avalon_spi_command>
	int ret = alt_avalon_spi_command(SPI_0_BASE, 0, nbytes, data, 0, NULL, 0);
 80040a8:	e0bffe03 	ldbu	r2,-8(fp)
 80040ac:	d8000215 	stw	zero,8(sp)
 80040b0:	d8000115 	stw	zero,4(sp)
 80040b4:	d8000015 	stw	zero,0(sp)
 80040b8:	e1ffff17 	ldw	r7,-4(fp)
 80040bc:	100d883a 	mov	r6,r2
 80040c0:	000b883a 	mov	r5,zero
 80040c4:	01003004 	movi	r4,192
 80040c8:	80163c80 	call	80163c8 <alt_avalon_spi_command>
 80040cc:	e0bffb15 	stw	r2,-20(fp)
	if (ret < 0){
 80040d0:	e0bffb17 	ldw	r2,-20(fp)
 80040d4:	1000030e 	bge	r2,zero,80040e4 <MAXbytes_wr+0x94>
		printf("Error!!!\n");
 80040d8:	01020074 	movhi	r4,2049
 80040dc:	211e8504 	addi	r4,r4,31252
 80040e0:	800a6700 	call	800a670 <puts>
	}
	return (data + nbytes);
 80040e4:	e0bffe03 	ldbu	r2,-8(fp)
 80040e8:	e0ffff17 	ldw	r3,-4(fp)
 80040ec:	1885883a 	add	r2,r3,r2
}
 80040f0:	e037883a 	mov	sp,fp
 80040f4:	dfc00117 	ldw	ra,4(sp)
 80040f8:	df000017 	ldw	fp,0(sp)
 80040fc:	dec00204 	addi	sp,sp,8
 8004100:	f800283a 	ret

08004104 <MAXreg_rd>:

//reads register from MAX3421E via SPI
BYTE MAXreg_rd(BYTE reg) {
 8004104:	defff804 	addi	sp,sp,-32
 8004108:	dfc00715 	stw	ra,28(sp)
 800410c:	df000615 	stw	fp,24(sp)
 8004110:	df000604 	addi	fp,sp,24
 8004114:	2005883a 	mov	r2,r4
 8004118:	e0bfff05 	stb	r2,-4(fp)
	//read return code from SPI peripheral (see Intel documentation)
	//if return code < 0 print an error
	//deselect MAX3421E (may not be necessary if you are using SPI peripheral)
	//return val
	//printf("MAXreg_rd\n");
	BYTE val = 0;
 800411c:	e03ffe05 	stb	zero,-8(fp)
	int ret;
	ret = alt_avalon_spi_command(SPI_0_BASE, 0, 1, &reg, 1, &val, 0);
 8004120:	e0ffff04 	addi	r3,fp,-4
 8004124:	d8000215 	stw	zero,8(sp)
 8004128:	e0bffe04 	addi	r2,fp,-8
 800412c:	d8800115 	stw	r2,4(sp)
 8004130:	00800044 	movi	r2,1
 8004134:	d8800015 	stw	r2,0(sp)
 8004138:	180f883a 	mov	r7,r3
 800413c:	01800044 	movi	r6,1
 8004140:	000b883a 	mov	r5,zero
 8004144:	01003004 	movi	r4,192
 8004148:	80163c80 	call	80163c8 <alt_avalon_spi_command>
 800414c:	e0bffd15 	stw	r2,-12(fp)
	if (ret < 0){
 8004150:	e0bffd17 	ldw	r2,-12(fp)
 8004154:	1000040e 	bge	r2,zero,8004168 <MAXreg_rd+0x64>
		printf("Error!!! SPI command function returned %x \n", ret);
 8004158:	e17ffd17 	ldw	r5,-12(fp)
 800415c:	01020074 	movhi	r4,2049
 8004160:	211e8804 	addi	r4,r4,31264
 8004164:	800a5740 	call	800a574 <printf>
	}
	return val;
 8004168:	e0bffe03 	ldbu	r2,-8(fp)
}
 800416c:	e037883a 	mov	sp,fp
 8004170:	dfc00117 	ldw	ra,4(sp)
 8004174:	df000017 	ldw	fp,0(sp)
 8004178:	dec00204 	addi	sp,sp,8
 800417c:	f800283a 	ret

08004180 <MAXbytes_rd>:
//multiple-byte write
//returns a pointer to a memory position after last written
BYTE* MAXbytes_rd(BYTE reg, BYTE nbytes, BYTE* data) {
 8004180:	defff604 	addi	sp,sp,-40
 8004184:	dfc00915 	stw	ra,36(sp)
 8004188:	df000815 	stw	fp,32(sp)
 800418c:	df000804 	addi	fp,sp,32
 8004190:	2007883a 	mov	r3,r4
 8004194:	2805883a 	mov	r2,r5
 8004198:	e1bfff15 	stw	r6,-4(fp)
 800419c:	e0fffd05 	stb	r3,-12(fp)
 80041a0:	e0bffe05 	stb	r2,-8(fp)
	//read return code from SPI peripheral (see Intel documentation)
	//if return code < 0 print an error
	//deselect MAX3421E (may not be necessary if you are using SPI peripheral)
	//return (data + nbytes);
	//printf("MAXbytes_rd\n");
	BYTE read_data = 0;
 80041a4:	e03ffb05 	stb	zero,-20(fp)
	int ret = alt_avalon_spi_command(SPI_0_BASE, 0, 1, &reg, nbytes, data, 0);
 80041a8:	e0bffe03 	ldbu	r2,-8(fp)
 80041ac:	e13ffd04 	addi	r4,fp,-12
 80041b0:	d8000215 	stw	zero,8(sp)
 80041b4:	e0ffff17 	ldw	r3,-4(fp)
 80041b8:	d8c00115 	stw	r3,4(sp)
 80041bc:	d8800015 	stw	r2,0(sp)
 80041c0:	200f883a 	mov	r7,r4
 80041c4:	01800044 	movi	r6,1
 80041c8:	000b883a 	mov	r5,zero
 80041cc:	01003004 	movi	r4,192
 80041d0:	80163c80 	call	80163c8 <alt_avalon_spi_command>
 80041d4:	e0bffc15 	stw	r2,-16(fp)
	if (ret < 0){
 80041d8:	e0bffc17 	ldw	r2,-16(fp)
 80041dc:	1000040e 	bge	r2,zero,80041f0 <MAXbytes_rd+0x70>
		printf("Error!!! SPI command function returned %x \n", ret);
 80041e0:	e17ffc17 	ldw	r5,-16(fp)
 80041e4:	01020074 	movhi	r4,2049
 80041e8:	211e8804 	addi	r4,r4,31264
 80041ec:	800a5740 	call	800a574 <printf>
	}
	return data+ nbytes;
 80041f0:	e0bffe03 	ldbu	r2,-8(fp)
 80041f4:	e0ffff17 	ldw	r3,-4(fp)
 80041f8:	1885883a 	add	r2,r3,r2

}
 80041fc:	e037883a 	mov	sp,fp
 8004200:	dfc00117 	ldw	ra,4(sp)
 8004204:	df000017 	ldw	fp,0(sp)
 8004208:	dec00204 	addi	sp,sp,8
 800420c:	f800283a 	ret

08004210 <MAX3421E_reset>:
/* reset MAX3421E using chip reset bit. SPI configuration is not affected   */
void MAX3421E_reset(void) {
 8004210:	defffd04 	addi	sp,sp,-12
 8004214:	dfc00215 	stw	ra,8(sp)
 8004218:	df000115 	stw	fp,4(sp)
 800421c:	df000104 	addi	fp,sp,4
	//hardware reset, then software reset
	IOWR_ALTERA_AVALON_PIO_DATA(USB_RST_BASE, 0);
 8004220:	0007883a 	mov	r3,zero
 8004224:	00817004 	movi	r2,1472
 8004228:	10c00035 	stwio	r3,0(r2)
	usleep(1000000);
 800422c:	010003f4 	movhi	r4,15
 8004230:	21109004 	addi	r4,r4,16960
 8004234:	80157240 	call	8015724 <usleep>
	IOWR_ALTERA_AVALON_PIO_DATA(USB_RST_BASE, 1);
 8004238:	00c00044 	movi	r3,1
 800423c:	00817004 	movi	r2,1472
 8004240:	10c00035 	stwio	r3,0(r2)
	BYTE tmp = 0;
 8004244:	e03fff05 	stb	zero,-4(fp)
	MAXreg_wr( rUSBCTL, bmCHIPRES);      //Chip reset. This stops the oscillator
 8004248:	01400804 	movi	r5,32
 800424c:	01001e04 	movi	r4,120
 8004250:	8003fa80 	call	8003fa8 <MAXreg_wr>
	MAXreg_wr( rUSBCTL, 0x00);                          //Remove the reset
 8004254:	000b883a 	mov	r5,zero
 8004258:	01001e04 	movi	r4,120
 800425c:	8003fa80 	call	8003fa8 <MAXreg_wr>
	while (!(MAXreg_rd( rUSBIRQ) & bmOSCOKIRQ)) { //wait until the PLL stabilizes
 8004260:	00000806 	br	8004284 <MAX3421E_reset+0x74>
		tmp++;                                      //timeout after 256 attempts
 8004264:	e0bfff03 	ldbu	r2,-4(fp)
 8004268:	10800044 	addi	r2,r2,1
 800426c:	e0bfff05 	stb	r2,-4(fp)
		if (tmp == 0) {
 8004270:	e0bfff03 	ldbu	r2,-4(fp)
 8004274:	1000031e 	bne	r2,zero,8004284 <MAX3421E_reset+0x74>
			printf("reset timeout!");
 8004278:	01020074 	movhi	r4,2049
 800427c:	211e9304 	addi	r4,r4,31308
 8004280:	800a5740 	call	800a574 <printf>
	usleep(1000000);
	IOWR_ALTERA_AVALON_PIO_DATA(USB_RST_BASE, 1);
	BYTE tmp = 0;
	MAXreg_wr( rUSBCTL, bmCHIPRES);      //Chip reset. This stops the oscillator
	MAXreg_wr( rUSBCTL, 0x00);                          //Remove the reset
	while (!(MAXreg_rd( rUSBIRQ) & bmOSCOKIRQ)) { //wait until the PLL stabilizes
 8004284:	01001a04 	movi	r4,104
 8004288:	80041040 	call	8004104 <MAXreg_rd>
 800428c:	10803fcc 	andi	r2,r2,255
 8004290:	1080004c 	andi	r2,r2,1
 8004294:	103ff326 	beq	r2,zero,8004264 <__alt_data_end+0xfc004264>
		tmp++;                                      //timeout after 256 attempts
		if (tmp == 0) {
			printf("reset timeout!");
		}
	}
}
 8004298:	0001883a 	nop
 800429c:	e037883a 	mov	sp,fp
 80042a0:	dfc00117 	ldw	ra,4(sp)
 80042a4:	df000017 	ldw	fp,0(sp)
 80042a8:	dec00204 	addi	sp,sp,8
 80042ac:	f800283a 	ret

080042b0 <Vbus_power>:
/* turn USB power on/off                                                */
/* ON pin of VBUS switch (MAX4793 or similar) is connected to GPOUT7    */
/* OVERLOAD pin of Vbus switch is connected to GPIN7                    */
/* OVERLOAD state low. NO OVERLOAD or VBUS OFF state high.              */
BOOL Vbus_power(BOOL action) {
 80042b0:	defffe04 	addi	sp,sp,-8
 80042b4:	df000115 	stw	fp,4(sp)
 80042b8:	df000104 	addi	fp,sp,4
 80042bc:	e13fff15 	stw	r4,-4(fp)
	// power on/off successful
	return (1);
 80042c0:	00800044 	movi	r2,1
}
 80042c4:	e037883a 	mov	sp,fp
 80042c8:	df000017 	ldw	fp,0(sp)
 80042cc:	dec00104 	addi	sp,sp,4
 80042d0:	f800283a 	ret

080042d4 <MAX_busprobe>:

/* probe bus to determine device presense and speed */
void MAX_busprobe(void) {
 80042d4:	defffd04 	addi	sp,sp,-12
 80042d8:	dfc00215 	stw	ra,8(sp)
 80042dc:	df000115 	stw	fp,4(sp)
 80042e0:	df000104 	addi	fp,sp,4
	BYTE bus_sample;

//  MAXreg_wr(rHCTL,bmSAMPLEBUS);
	bus_sample = MAXreg_rd( rHRSL);            //Get J,K status
 80042e4:	01003e04 	movi	r4,248
 80042e8:	80041040 	call	8004104 <MAXreg_rd>
 80042ec:	e0bfff05 	stb	r2,-4(fp)
	bus_sample &= ( bmJSTATUS | bmKSTATUS);      //zero the rest of the byte
 80042f0:	e0ffff03 	ldbu	r3,-4(fp)
 80042f4:	00bff004 	movi	r2,-64
 80042f8:	1884703a 	and	r2,r3,r2
 80042fc:	e0bfff05 	stb	r2,-4(fp)

	switch (bus_sample) {                   //start full-speed or low-speed host
 8004300:	e0bfff03 	ldbu	r2,-4(fp)
 8004304:	10c01020 	cmpeqi	r3,r2,64
 8004308:	1800221e 	bne	r3,zero,8004394 <MAX_busprobe+0xc0>
 800430c:	10c01048 	cmpgei	r3,r2,65
 8004310:	1800021e 	bne	r3,zero,800431c <MAX_busprobe+0x48>
 8004314:	10003b26 	beq	r2,zero,8004404 <MAX_busprobe+0x130>
			MAXreg_wr( rMODE, MODE_FS_HOST); //start full-speed host
			usb_task_state = ( USB_DETACHED_SUBSTATE_WAIT_FOR_DEVICE);
		}
		break;
	} //end switch( bus_sample )
}
 8004318:	00004a06 	br	8004444 <MAX_busprobe+0x170>

//  MAXreg_wr(rHCTL,bmSAMPLEBUS);
	bus_sample = MAXreg_rd( rHRSL);            //Get J,K status
	bus_sample &= ( bmJSTATUS | bmKSTATUS);      //zero the rest of the byte

	switch (bus_sample) {                   //start full-speed or low-speed host
 800431c:	10c02020 	cmpeqi	r3,r2,128
 8004320:	1800031e 	bne	r3,zero,8004330 <MAX_busprobe+0x5c>
 8004324:	10803020 	cmpeqi	r2,r2,192
 8004328:	1000331e 	bne	r2,zero,80043f8 <MAX_busprobe+0x124>
			MAXreg_wr( rMODE, MODE_FS_HOST); //start full-speed host
			usb_task_state = ( USB_DETACHED_SUBSTATE_WAIT_FOR_DEVICE);
		}
		break;
	} //end switch( bus_sample )
}
 800432c:	00004506 	br	8004444 <MAX_busprobe+0x170>
	bus_sample &= ( bmJSTATUS | bmKSTATUS);      //zero the rest of the byte

	switch (bus_sample) {                   //start full-speed or low-speed host
	case ( bmJSTATUS):
		/*kludgy*/
		if (usb_task_state != USB_ATTACHED_SUBSTATE_WAIT_RESET_COMPLETE) { //bus reset causes connection detect interrupt
 8004330:	d0a00303 	ldbu	r2,-32756(gp)
 8004334:	10803fcc 	andi	r2,r2,255
 8004338:	108004e0 	cmpeqi	r2,r2,19
 800433c:	10003e1e 	bne	r2,zero,8004438 <MAX_busprobe+0x164>
			if (!(MAXreg_rd( rMODE) & bmLOWSPEED)) {
 8004340:	01003604 	movi	r4,216
 8004344:	80041040 	call	8004104 <MAXreg_rd>
 8004348:	10803fcc 	andi	r2,r2,255
 800434c:	1080008c 	andi	r2,r2,2
 8004350:	1000071e 	bne	r2,zero,8004370 <MAX_busprobe+0x9c>
				MAXreg_wr( rMODE, MODE_FS_HOST);         //start full-speed host
 8004354:	01403244 	movi	r5,201
 8004358:	01003604 	movi	r4,216
 800435c:	8003fa80 	call	8003fa8 <MAXreg_wr>
				printf("Starting in full speed\n");
 8004360:	01020074 	movhi	r4,2049
 8004364:	211e9704 	addi	r4,r4,31324
 8004368:	800a6700 	call	800a670 <puts>
 800436c:	00000606 	br	8004388 <MAX_busprobe+0xb4>
			} else {
				MAXreg_wr( rMODE, MODE_LS_HOST);    //start low-speed host
 8004370:	014032c4 	movi	r5,203
 8004374:	01003604 	movi	r4,216
 8004378:	8003fa80 	call	8003fa8 <MAXreg_wr>
				printf("Starting in low speed\n");
 800437c:	01020074 	movhi	r4,2049
 8004380:	211e9d04 	addi	r4,r4,31348
 8004384:	800a6700 	call	800a670 <puts>
			}
			usb_task_state = ( USB_STATE_ATTACHED); //signal usb state machine to start attachment sequence
 8004388:	00800404 	movi	r2,16
 800438c:	d0a00305 	stb	r2,-32756(gp)
		}
		break;
 8004390:	00002906 	br	8004438 <MAX_busprobe+0x164>
	case ( bmKSTATUS):
		if (usb_task_state != USB_ATTACHED_SUBSTATE_WAIT_RESET_COMPLETE) { //bus reset causes connection detect interrupt
 8004394:	d0a00303 	ldbu	r2,-32756(gp)
 8004398:	10803fcc 	andi	r2,r2,255
 800439c:	108004e0 	cmpeqi	r2,r2,19
 80043a0:	1000271e 	bne	r2,zero,8004440 <MAX_busprobe+0x16c>
			if (!(MAXreg_rd( rMODE) & bmLOWSPEED)) {
 80043a4:	01003604 	movi	r4,216
 80043a8:	80041040 	call	8004104 <MAXreg_rd>
 80043ac:	10803fcc 	andi	r2,r2,255
 80043b0:	1080008c 	andi	r2,r2,2
 80043b4:	1000071e 	bne	r2,zero,80043d4 <MAX_busprobe+0x100>
				MAXreg_wr( rMODE, MODE_LS_HOST);   //start low-speed host
 80043b8:	014032c4 	movi	r5,203
 80043bc:	01003604 	movi	r4,216
 80043c0:	8003fa80 	call	8003fa8 <MAXreg_wr>
				printf("Starting in low speed\n");
 80043c4:	01020074 	movhi	r4,2049
 80043c8:	211e9d04 	addi	r4,r4,31348
 80043cc:	800a6700 	call	800a670 <puts>
 80043d0:	00000606 	br	80043ec <MAX_busprobe+0x118>
			} else {
				MAXreg_wr( rMODE, MODE_FS_HOST);         //start full-speed host
 80043d4:	01403244 	movi	r5,201
 80043d8:	01003604 	movi	r4,216
 80043dc:	8003fa80 	call	8003fa8 <MAXreg_wr>
				printf("Starting in full speed\n");
 80043e0:	01020074 	movhi	r4,2049
 80043e4:	211e9704 	addi	r4,r4,31324
 80043e8:	800a6700 	call	800a670 <puts>
			}
			usb_task_state = ( USB_STATE_ATTACHED); //signal usb state machine to start attachment sequence
 80043ec:	00800404 	movi	r2,16
 80043f0:	d0a00305 	stb	r2,-32756(gp)
		}
		break;
 80043f4:	00001206 	br	8004440 <MAX_busprobe+0x16c>
	case ( bmSE1):              //illegal state
		usb_task_state = ( USB_DETACHED_SUBSTATE_ILLEGAL);
 80043f8:	00800104 	movi	r2,4
 80043fc:	d0a00305 	stb	r2,-32756(gp)
		break;
 8004400:	00001006 	br	8004444 <MAX_busprobe+0x170>
	case ( bmSE0):              //disconnected state
		if (!((usb_task_state & USB_STATE_MASK) == USB_STATE_DETACHED)) //if we came here from other than detached state
 8004404:	d0a00303 	ldbu	r2,-32756(gp)
 8004408:	10803fcc 	andi	r2,r2,255
 800440c:	10803c0c 	andi	r2,r2,240
 8004410:	10000326 	beq	r2,zero,8004420 <MAX_busprobe+0x14c>
			usb_task_state = ( USB_DETACHED_SUBSTATE_INITIALIZE); //clear device data structures
 8004414:	00800044 	movi	r2,1
 8004418:	d0a00305 	stb	r2,-32756(gp)
		else {
			MAXreg_wr( rMODE, MODE_FS_HOST); //start full-speed host
			usb_task_state = ( USB_DETACHED_SUBSTATE_WAIT_FOR_DEVICE);
		}
		break;
 800441c:	00000906 	br	8004444 <MAX_busprobe+0x170>
		break;
	case ( bmSE0):              //disconnected state
		if (!((usb_task_state & USB_STATE_MASK) == USB_STATE_DETACHED)) //if we came here from other than detached state
			usb_task_state = ( USB_DETACHED_SUBSTATE_INITIALIZE); //clear device data structures
		else {
			MAXreg_wr( rMODE, MODE_FS_HOST); //start full-speed host
 8004420:	01403244 	movi	r5,201
 8004424:	01003604 	movi	r4,216
 8004428:	8003fa80 	call	8003fa8 <MAXreg_wr>
			usb_task_state = ( USB_DETACHED_SUBSTATE_WAIT_FOR_DEVICE);
 800442c:	008000c4 	movi	r2,3
 8004430:	d0a00305 	stb	r2,-32756(gp)
		}
		break;
 8004434:	00000306 	br	8004444 <MAX_busprobe+0x170>
				MAXreg_wr( rMODE, MODE_LS_HOST);    //start low-speed host
				printf("Starting in low speed\n");
			}
			usb_task_state = ( USB_STATE_ATTACHED); //signal usb state machine to start attachment sequence
		}
		break;
 8004438:	0001883a 	nop
 800443c:	00000106 	br	8004444 <MAX_busprobe+0x170>
				MAXreg_wr( rMODE, MODE_FS_HOST);         //start full-speed host
				printf("Starting in full speed\n");
			}
			usb_task_state = ( USB_STATE_ATTACHED); //signal usb state machine to start attachment sequence
		}
		break;
 8004440:	0001883a 	nop
			MAXreg_wr( rMODE, MODE_FS_HOST); //start full-speed host
			usb_task_state = ( USB_DETACHED_SUBSTATE_WAIT_FOR_DEVICE);
		}
		break;
	} //end switch( bus_sample )
}
 8004444:	0001883a 	nop
 8004448:	e037883a 	mov	sp,fp
 800444c:	dfc00117 	ldw	ra,4(sp)
 8004450:	df000017 	ldw	fp,0(sp)
 8004454:	dec00204 	addi	sp,sp,8
 8004458:	f800283a 	ret

0800445c <MAX3421E_init>:
/* MAX3421E initialization after power-on   */
void MAX3421E_init(void) {
 800445c:	defffe04 	addi	sp,sp,-8
 8004460:	dfc00115 	stw	ra,4(sp)
 8004464:	df000015 	stw	fp,0(sp)
 8004468:	d839883a 	mov	fp,sp
	/* Configure full-duplex SPI, interrupt pulse   */
	MAXreg_wr( rPINCTL, (bmFDUPSPI + bmINTLEVEL + bmGPXB)); //Full-duplex SPI, level interrupt, GPX
 800446c:	01400684 	movi	r5,26
 8004470:	01002204 	movi	r4,136
 8004474:	8003fa80 	call	8003fa8 <MAXreg_wr>
	MAX3421E_reset();                                //stop/start the oscillator
 8004478:	80042100 	call	8004210 <MAX3421E_reset>
	/* configure power switch   */
	Vbus_power( OFF);                                      //turn Vbus power off
 800447c:	0009883a 	mov	r4,zero
 8004480:	80042b00 	call	80042b0 <Vbus_power>
	MAXreg_wr( rGPINIEN, bmGPINIEN7); //enable interrupt on GPIN7 (power switch overload flag)
 8004484:	01402004 	movi	r5,128
 8004488:	01002e04 	movi	r4,184
 800448c:	8003fa80 	call	8003fa8 <MAXreg_wr>
	Vbus_power( ON);
 8004490:	01000044 	movi	r4,1
 8004494:	80042b00 	call	80042b0 <Vbus_power>
